

Microchip MPLAB XC8 Assembler V2.40 build 20220703182018 
                                                                                               Sat Feb 25 15:56:48 2023

Microchip MPLAB XC8 C Compiler v2.40 (Free license) build 20220703182018 Og1 
     1                           	processor	18F4620
     2                           	fnconf	rparam,??,?,0
     3                           	pagewidth 120
     4                           	opt	flic
     5                           	psect	idataCOMRAM,global,class=CODE,delta=1,noexec
     6                           	psect	idataBANK0,global,class=CODE,delta=1,noexec
     7                           	psect	smallconst,global,reloc=2,class=SMALLCONST,delta=1,noexec
     8                           	psect	cinit,global,reloc=2,class=CODE,delta=1
     9                           	psect	bssCOMRAM,global,class=COMRAM,space=1,delta=1,lowdata,noexec
    10                           	psect	dataCOMRAM,global,class=COMRAM,space=1,delta=1,lowdata,noexec
    11                           	psect	bssBANK0,global,class=BANK0,space=1,delta=1,lowdata,noexec
    12                           	psect	dataBANK0,global,class=BANK0,space=1,delta=1,lowdata,noexec
    13                           	psect	cstackBANK0,global,class=BANK0,space=1,delta=1,lowdata,noexec
    14                           	psect	cstackCOMRAM,global,class=COMRAM,space=1,delta=1,lowdata,noexec
    15                           	psect	text0,global,reloc=2,class=CODE,delta=1
    16                           	psect	text1,global,reloc=2,class=CODE,delta=1
    17                           	psect	text2,global,reloc=2,class=CODE,delta=1
    18                           	psect	text3,global,reloc=2,class=CODE,delta=1
    19                           	psect	text4,global,reloc=2,class=CODE,delta=1
    20                           	psect	text5,global,reloc=2,class=CODE,delta=1
    21                           	psect	text6,global,reloc=2,class=CODE,delta=1
    22                           	psect	text7,global,reloc=2,class=CODE,delta=1
    23                           	psect	text8,global,reloc=2,class=CODE,delta=1
    24                           	psect	text9,global,reloc=2,class=CODE,delta=1,group=1
    25                           	psect	text10,global,reloc=2,class=CODE,delta=1,group=1
    26                           	psect	text11,global,reloc=2,class=CODE,delta=1,group=1
    27                           	psect	text12,global,reloc=2,class=CODE,delta=1,group=1
    28                           	psect	intcode,global,reloc=2,class=CODE,delta=1
    29                           	psect	intcode_body,global,reloc=2,class=CODE,delta=1
    30                           	psect	text14,global,reloc=2,class=CODE,delta=1
    31                           	psect	text15,global,reloc=2,class=CODE,delta=1
    32                           	psect	text16,global,reloc=2,class=CODE,delta=1
    33                           	psect	text17,global,reloc=2,class=CODE,delta=1
    34                           	psect	text18,global,reloc=2,class=CODE,delta=1
    35                           	psect	text19,global,reloc=2,class=CODE,delta=1
    36                           	psect	text20,global,reloc=2,class=CODE,delta=1
    37                           	psect	text21,global,reloc=2,class=CODE,delta=1
    38                           	psect	text22,global,reloc=2,class=CODE,delta=1
    39                           	psect	text23,global,reloc=2,class=CODE,delta=1
    40                           	psect	text24,global,reloc=2,class=CODE,delta=1
    41                           	psect	text25,global,reloc=2,class=CODE,delta=1
    42                           	psect	text26,global,reloc=2,class=CODE,delta=1
    43                           	psect	text27,global,reloc=2,class=CODE,delta=1
    44                           	psect	text28,global,reloc=2,class=CODE,delta=1
    45                           	psect	text29,global,reloc=2,class=CODE,delta=1
    46                           	psect	text30,global,reloc=2,class=CODE,delta=1
    47                           	psect	text31,global,reloc=2,class=CODE,delta=1
    48                           	psect	text32,global,reloc=2,class=CODE,delta=1
    49                           	psect	text33,global,reloc=2,class=CODE,delta=1
    50                           	psect	text34,global,reloc=2,class=CODE,delta=1
    51                           	psect	text35,global,reloc=2,class=CODE,delta=1
    52                           	psect	text36,global,reloc=2,class=CODE,delta=1
    53                           	psect	intsave_regs,global,class=BIGRAM,space=1,delta=1,noexec
    54                           	psect	text37,global,reloc=2,class=CODE,delta=1
    55                           	psect	rparam,global,class=COMRAM,space=1,delta=1,noexec
    56                           	psect	temp,global,ovrld,common,class=COMRAM,space=1,delta=1
    57                           	psect	idloc,global,abs,ovrld,class=IDLOC,space=5,delta=1,noexec
    58                           	psect	config,global,abs,ovrld,class=CONFIG,space=4,delta=1,noexec
    59   000000                     
    60                           ; Version 2.40
    61                           ; Generated 17/11/2021 GMT
    62                           ; 
    63                           ; Copyright © 2021, Microchip Technology Inc. and its subsidiaries ("Microchip")
    64                           ; All rights reserved.
    65                           ; 
    66                           ; This software is developed by Microchip Technology Inc. and its subsidiaries ("Microch
      +                          ip").
    67                           ; 
    68                           ; Redistribution and use in source and binary forms, with or without modification, are
    69                           ; permitted provided that the following conditions are met:
    70                           ; 
    71                           ;     1. Redistributions of source code must retain the above copyright notice, this lis
      +                          t of
    72                           ;        conditions and the following disclaimer.
    73                           ; 
    74                           ;     2. Redistributions in binary form must reproduce the above copyright notice, this 
      +                          list
    75                           ;        of conditions and the following disclaimer in the documentation and/or other
    76                           ;        materials provided with the distribution. Publication is not required when
    77                           ;        this file is used in an embedded application.
    78                           ; 
    79                           ;     3. Microchip's name may not be used to endorse or promote products derived from th
      +                          is
    80                           ;        software without specific prior written permission.
    81                           ; 
    82                           ; THIS SOFTWARE IS PROVIDED BY MICROCHIP "AS IS" AND ANY EXPRESS OR IMPLIED WARRANTIES,
    83                           ; INCLUDING, BUT NOT LIMITED TO, THE IMPLIED WARRANTIES OF MERCHANTABILITY AND FITNESS F
      +                          OR
    84                           ; PURPOSE ARE DISCLAIMED.  IN NO EVENT SHALL MICROCHIP BE LIABLE FOR ANY DIRECT, INDIREC
      +                          T,
    85                           ; INCIDENTAL, SPECIAL, EXEMPLARY, OR CONSEQUENTIAL DAMAGES (INCLUDING BUT NOT LIMITED TO
    86                           ; PROCUREMENT OF SUBSTITUTE GOODS OR SERVICES; LOSS OF USE, DATA OR PROFITS; OR BUSINESS
    87                           ; INTERRUPTION) HOWSOEVER CAUSED AND ON ANY THEORY OF LIABILITY, WHETHER IN CONTRACT, ST
      +                          RICT
    88                           ; LIABILITY, OR TORT (INCLUDING NEGLIGENCE OR OTHERWISE) ARISING IN ANY WAY OUT OF THE U
      +                          SE OF
    89                           ; THIS SOFTWARE, EVEN IF ADVISED OF THE POSSIBILITY OF SUCH DAMAGE.
    90                           ; 
    91                           ; 
    92                           ; Code-generator required, PIC18F4620 Definitions
    93                           ; 
    94                           ; SFR Addresses
    95   000000                     
    96                           	psect	idataCOMRAM
    97   002C24                     __pidataCOMRAM:
    98                           	callstack 0
    99                           
   100                           ;initializer for _ret
   101   002C24  01                 	db	1
   102                           
   103                           ;initializer for _led2
   104   002C25  01                 	db	1
   105                           
   106                           ;initializer for _led1
   107   002C26  71                 	db	113
   108                           
   109                           	psect	idataBANK0
   110   002AFE                     __pidataBANK0:
   111                           	callstack 0
   112                           
   113                           ;initializer for _port_register
   114   002AFE  80                 	db	128
   115   002AFF  0F                 	db	15
   116   002B00  81                 	db	129
   117   002B01  0F                 	db	15
   118   002B02  82                 	db	130
   119   002B03  0F                 	db	15
   120   002B04  83                 	db	131
   121   002B05  0F                 	db	15
   122   002B06  84                 	db	132
   123   002B07  0F                 	db	15
   124                           
   125                           ;initializer for _lat_register
   126   002B08  89                 	db	137
   127   002B09  0F                 	db	15
   128   002B0A  8A                 	db	138
   129   002B0B  0F                 	db	15
   130   002B0C  8B                 	db	139
   131   002B0D  0F                 	db	15
   132   002B0E  8C                 	db	140
   133   002B0F  0F                 	db	15
   134   002B10  8D                 	db	141
   135   002B11  0F                 	db	15
   136                           
   137                           ;initializer for _tris_register
   138   002B12  92                 	db	146
   139   002B13  0F                 	db	15
   140   002B14  93                 	db	147
   141   002B15  0F                 	db	15
   142   002B16  94                 	db	148
   143   002B17  0F                 	db	15
   144   002B18  95                 	db	149
   145   002B19  0F                 	db	15
   146   002B1A  96                 	db	150
   147   002B1B  0F                 	db	15
   148                           
   149                           ;initializer for _usart_obj
   150   002B1C  2580               	dw	9600
   151   002B1E  0000               	dw	0
   152   002B20  00                 	db	0
   153   002B21  60                 	db	96
   154   002B22  00                 	db	0
   155   002B23  60                 	db	96
   156   002B24  00                 	db	0
   157   002B25  00                 	db	0
   158   002B26  00                 	db	0
   159   002B27  00                 	db	0
   160   002B28  B6                 	db	low _EUSART_IN
   161   002B29  2B                 	db	high _EUSART_IN
   162   002B2A  B6                 	db	low _EUSART_OUT
   163   002B2B  29                 	db	high _EUSART_OUT
   164   002B2C  00                 	db	0
   165   002B2D  00                 	db	0
   166   002B2E  00                 	db	0
   167   002B2F  00                 	db	0
   168                           
   169                           	psect	smallconst
   170   001000                     __psmallconst:
   171                           	callstack 0
   172   001000  00                 	db	0
   173   001001  37                 	db	55
   174   001002  38                 	db	56
   175   001003  39                 	db	57
   176   001004  2F                 	db	47
   177   001005  34                 	db	52
   178   001006  35                 	db	53
   179   001007  36                 	db	54
   180   001008  2A                 	db	42
   181   001009  31                 	db	49
   182   00100A  32                 	db	50
   183   00100B  33                 	db	51
   184   00100C  2D                 	db	45
   185   00100D  23                 	db	35
   186   00100E  30                 	db	48
   187   00100F  3D                 	db	61
   188   001010  2B                 	db	43
   189   001011                     __end_of_btn_values:
   190                           	callstack 0
   191   000000                     _TMR3L	set	4018
   192   000000                     _TMR3H	set	4019
   193   000000                     _TMR1L	set	4046
   194   000000                     _TMR1H	set	4047
   195   000000                     _TMR0L	set	4054
   196   000000                     _TMR0H	set	4055
   197   000000                     _INTCON2bits	set	4081
   198   000000                     _SPBRGH	set	4016
   199   000000                     _SPBRG	set	4015
   200   000000                     _BAUDCONbits	set	4024
   201   000000                     _TXREG	set	4013
   202   000000                     _TXSTAbits	set	4012
   203   000000                     _RCREG	set	4014
   204   000000                     _TRISCbits	set	3988
   205   000000                     _RCSTAbits	set	4011
   206   000000                     _EECON2	set	4007
   207   000000                     _CCPR2H	set	4028
   208   000000                     _CCPR2L	set	4027
   209   000000                     _CCPR1H	set	4031
   210   000000                     _CCPR1L	set	4030
   211   000000                     _ADCON1bits	set	4033
   212   000000                     _ADRESL	set	4035
   213   000000                     _ADRESH	set	4036
   214   000000                     _INTCONbits	set	4082
   215   000000                     _TRISD	set	3989
   216   000000                     _TRISB	set	3987
   217   000000                     _TRISE	set	3990
   218   000000                     _PORTBbits	set	3969
   219   000000                     _TRISC	set	3988
   220   000000                     _PIE1bits	set	3997
   221   000000                     _ADCON2bits	set	4032
   222   000000                     _ADCON0bits	set	4034
   223   000000                     _PORTE	set	3972
   224   000000                     _PORTD	set	3971
   225   000000                     _PORTC	set	3970
   226   000000                     _PORTB	set	3969
   227   000000                     _PORTA	set	3968
   228   000000                     _LATA	set	3977
   229   000000                     _TRISA	set	3986
   230   000000                     _PIE2bits	set	4000
   231   000000                     _CCP2CONbits	set	4026
   232   000000                     _CCP1CONbits	set	4029
   233   000000                     _PIR1bits	set	3998
   234   000000                     _T2CONbits	set	4042
   235   000000                     _T1CONbits	set	4045
   236   000000                     _T0CONbits	set	4053
   237   000000                     _INTCON3bits	set	4080
   238   000000                     _EECON1bits	set	4006
   239   000000                     _EEDATA	set	4008
   240   000000                     _EEADR	set	4009
   241   000000                     _EEADRH	set	4010
   242   000000                     _T3CONbits	set	4017
   243   000000                     _PIR2bits	set	4001
   244   000000                     _LATE	set	3981
   245   000000                     _LATD	set	3980
   246   000000                     _LATC	set	3979
   247   000000                     _LATB	set	3978
   248   000000                     _TMR2	set	4044
   249   001011                     STR_1:
   250   001011  25                 	db	37
   251   001012  69                 	db	105	;'i'
   252   001013  00                 	db	0
   253   001014  00                 	db	0	; dummy byte at the end
   254   000000                     
   255                           ; #config settings
   256                           
   257                           	psect	cinit
   258   002A1C                     __pcinit:
   259                           	callstack 0
   260   002A1C                     start_initialization:
   261                           	callstack 0
   262   002A1C                     __initialization:
   263                           	callstack 0
   264                           
   265                           ; Initialize objects allocated to BANK0 (50 bytes)
   266                           ; load TBLPTR registers with __pidataBANK0
   267   002A1C  0EFE               	movlw	low __pidataBANK0
   268   002A1E  6EF6               	movwf	tblptrl,c
   269   002A20  0E2A               	movlw	high __pidataBANK0
   270   002A22  6EF7               	movwf	tblptrh,c
   271   002A24  0E00               	movlw	low (__pidataBANK0 shr (0+16))
   272   002A26  6EF8               	movwf	tblptru,c
   273   002A28  EE00  F080         	lfsr	0,__pdataBANK0
   274   002A2C  EE10 F032          	lfsr	1,50
   275   002A30                     copy_data0:
   276   002A30  0009               	tblrd		*+
   277   002A32  CFF5 FFEE          	movff	tablat,postinc0
   278   002A36  50E5               	movf	postdec1,w,c
   279   002A38  50E1               	movf	fsr1l,w,c
   280   002A3A  E1FA               	bnz	copy_data0
   281                           
   282                           ; Initialize objects allocated to COMRAM (3 bytes)
   283                           ; load TBLPTR registers with __pidataCOMRAM
   284   002A3C  0E24               	movlw	low __pidataCOMRAM
   285   002A3E  6EF6               	movwf	tblptrl,c
   286   002A40  0E2C               	movlw	high __pidataCOMRAM
   287   002A42  6EF7               	movwf	tblptrh,c
   288   002A44  0E00               	movlw	low (__pidataCOMRAM shr (0+16))
   289   002A46  6EF8               	movwf	tblptru,c
   290   002A48  0009               	tblrd		*+	;fetch initializer
   291   002A4A  CFF5 F066          	movff	tablat,__pdataCOMRAM
   292   002A4E  0009               	tblrd		*+	;fetch initializer
   293   002A50  CFF5 F067          	movff	tablat,__pdataCOMRAM+1
   294   002A54  0009               	tblrd		*+	;fetch initializer
   295   002A56  CFF5 F068          	movff	tablat,__pdataCOMRAM+2
   296                           
   297                           ; Clear objects allocated to BANK0 (28 bytes)
   298   002A5A  EE00  F0B2         	lfsr	0,__pbssBANK0
   299   002A5E  0E1C               	movlw	28
   300   002A60                     clear_0:
   301   002A60  6AEE               	clrf	postinc0,c
   302   002A62  06E8               	decf	wreg,f,c
   303   002A64  E1FD               	bnz	clear_0
   304                           
   305                           ; Clear objects allocated to COMRAM (33 bytes)
   306   002A66  EE00  F045         	lfsr	0,__pbssCOMRAM
   307   002A6A  0E21               	movlw	33
   308   002A6C                     clear_1:
   309   002A6C  6AEE               	clrf	postinc0,c
   310   002A6E  06E8               	decf	wreg,f,c
   311   002A70  E1FD               	bnz	clear_1
   312   002A72                     end_of_initialization:
   313                           	callstack 0
   314   002A72                     __end_of__initialization:
   315                           	callstack 0
   316   002A72  9069               	bcf	int$flags,0,c	;clear compiler interrupt flag (level 1)
   317   002A74  9269               	bcf	int$flags,1,c	;clear compiler interrupt flag (level 2)
   318   002A76  0100               	movlb	0
   319   002A78  EFE2  F015         	goto	_main	;jump to C main() function
   320                           
   321                           	psect	bssCOMRAM
   322   000045                     __pbssCOMRAM:
   323                           	callstack 0
   324   000045                     _timer3_preload_value:
   325                           	callstack 0
   326   000045                     	ds	2
   327   000047                     _timer1_preload_value:
   328                           	callstack 0
   329   000047                     	ds	2
   330   000049                     _timer0_preload:
   331                           	callstack 0
   332   000049                     	ds	2
   333   00004B                     _EUSART_RX_InterruptHandler:
   334                           	callstack 0
   335   00004B                     	ds	2
   336   00004D                     _EUSART_TX_InterruptHandler:
   337                           	callstack 0
   338   00004D                     	ds	2
   339   00004F                     _CCP2_InterruptHandler:
   340                           	callstack 0
   341   00004F                     	ds	2
   342   000051                     _CCP1_InterruptHandler:
   343                           	callstack 0
   344   000051                     	ds	2
   345   000053                     _ADC_InterruptHandler:
   346                           	callstack 0
   347   000053                     	ds	2
   348   000055                     _timer2_preload_value:
   349                           	callstack 0
   350   000055                     	ds	1
   351   000056                     relay_turn_off@F3047:
   352                           	callstack 0
   353   000056                     	ds	1
   354   000057                     relay_turn_on@F3042:
   355                           	callstack 0
   356   000057                     	ds	1
   357   000058                     relay_initialize@F3037:
   358                           	callstack 0
   359   000058                     	ds	1
   360   000059                     led_toggle_logic@F3058:
   361                           	callstack 0
   362   000059                     	ds	1
   363   00005A                     led_turn_off@F3053:
   364                           	callstack 0
   365   00005A                     	ds	1
   366   00005B                     led_turn_on@F3048:
   367                           	callstack 0
   368   00005B                     	ds	1
   369   00005C                     led_initialize@F3043:
   370                           	callstack 0
   371   00005C                     	ds	1
   372   00005D                     Dc_motor_stop@F3067:
   373                           	callstack 0
   374   00005D                     	ds	1
   375   00005E                     Dc_motor_stop@F3065:
   376                           	callstack 0
   377   00005E                     	ds	1
   378   00005F                     Dc_motor_turn_right@F3060:
   379                           	callstack 0
   380   00005F                     	ds	1
   381   000060                     Dc_motor_turn_right@F3058:
   382                           	callstack 0
   383   000060                     	ds	1
   384   000061                     Dc_motor_turn_left@F3053:
   385                           	callstack 0
   386   000061                     	ds	1
   387   000062                     Dc_motor_turn_left@F3051:
   388                           	callstack 0
   389   000062                     	ds	1
   390   000063                     Dc_motor_initialize@F3044:
   391                           	callstack 0
   392   000063                     	ds	1
   393   000064                     Dc_motor_initialize@F3042:
   394                           	callstack 0
   395   000064                     	ds	1
   396   000065                     _value_usart:
   397                           	callstack 0
   398   000065                     	ds	1
   399                           
   400                           	psect	dataCOMRAM
   401   000066                     __pdataCOMRAM:
   402                           	callstack 0
   403   000066                     _ret:
   404                           	callstack 0
   405   000066                     	ds	1
   406   000067                     _led2:
   407                           	callstack 0
   408   000067                     	ds	1
   409   000068                     _led1:
   410                           	callstack 0
   411   000068                     	ds	1
   412                           
   413                           	psect	bssBANK0
   414   0000B2                     __pbssBANK0:
   415                           	callstack 0
   416   0000B2                     _TIMER3_InterruptHandler:
   417                           	callstack 0
   418   0000B2                     	ds	2
   419   0000B4                     _TIMER2_InterruptHandler:
   420                           	callstack 0
   421   0000B4                     	ds	2
   422   0000B6                     _TIMER1_InterruptHandler:
   423                           	callstack 0
   424   0000B6                     	ds	2
   425   0000B8                     _TIMER0_InterruptHandler:
   426                           	callstack 0
   427   0000B8                     	ds	2
   428   0000BA                     _RB7_InterruptHandler:
   429                           	callstack 0
   430   0000BA                     	ds	2
   431   0000BC                     _RB6_InterruptHandler:
   432                           	callstack 0
   433   0000BC                     	ds	2
   434   0000BE                     _RB5_InterruptHandler:
   435                           	callstack 0
   436   0000BE                     	ds	2
   437   0000C0                     _RB4_InterruptHandler:
   438                           	callstack 0
   439   0000C0                     	ds	2
   440   0000C2                     _INT2_InterruptHandler:
   441                           	callstack 0
   442   0000C2                     	ds	2
   443   0000C4                     _INT1_InterruptHandler:
   444                           	callstack 0
   445   0000C4                     	ds	2
   446   0000C6                     _INT0_InterruptHandler:
   447                           	callstack 0
   448   0000C6                     	ds	2
   449   0000C8                     _EUSART_OverrunErrorHandler:
   450                           	callstack 0
   451   0000C8                     	ds	2
   452   0000CA                     _EUSART_FramingErrorHandler:
   453                           	callstack 0
   454   0000CA                     	ds	2
   455   0000CC                     CCP_CompareMode_set_Value@F3101:
   456                           	callstack 0
   457   0000CC                     	ds	2
   458                           
   459                           	psect	dataBANK0
   460   000080                     __pdataBANK0:
   461                           	callstack 0
   462   000080                     _port_register:
   463                           	callstack 0
   464   000080                     	ds	10
   465   00008A                     _lat_register:
   466                           	callstack 0
   467   00008A                     	ds	10
   468   000094                     _tris_register:
   469                           	callstack 0
   470   000094                     	ds	10
   471   00009E                     _usart_obj:
   472                           	callstack 0
   473   00009E                     	ds	20
   474                           
   475                           	psect	cstackBANK0
   476   0000CE                     __pcstackBANK0:
   477                           	callstack 0
   478   0000CE                     ??___fladd:
   479                           
   480                           ; 1 bytes @ 0x0
   481   0000CE                     	ds	4
   482   0000D2                     ___fladd@signs:
   483                           	callstack 0
   484                           
   485                           ; 1 bytes @ 0x4
   486   0000D2                     	ds	1
   487   0000D3                     ___fladd@aexp:
   488                           	callstack 0
   489                           
   490                           ; 1 bytes @ 0x5
   491   0000D3                     	ds	1
   492   0000D4                     ___fladd@bexp:
   493                           	callstack 0
   494                           
   495                           ; 1 bytes @ 0x6
   496   0000D4                     	ds	1
   497   0000D5                     ___fladd@grs:
   498                           	callstack 0
   499                           
   500                           ; 1 bytes @ 0x7
   501   0000D5                     	ds	1
   502   0000D6                     EUSART_BUADRATE_Calculation@_eusart:
   503                           	callstack 0
   504                           
   505                           ; 2 bytes @ 0x8
   506   0000D6                     	ds	2
   507   0000D8                     ??_EUSART_BUADRATE_Calculation:
   508                           
   509                           ; 1 bytes @ 0xA
   510   0000D8                     	ds	2
   511   0000DA                     EUSART_BUADRATE_Calculation@baud_rate_Temp:
   512                           	callstack 0
   513                           
   514                           ; 4 bytes @ 0xC
   515   0000DA                     	ds	4
   516   0000DE                     _EUSART_BUADRATE_Calculation$4513:
   517                           	callstack 0
   518                           
   519                           ; 4 bytes @ 0x10
   520   0000DE                     	ds	4
   521   0000E2                     EUSART_ASYNC_Init@_eusart:
   522                           	callstack 0
   523                           
   524                           ; 2 bytes @ 0x14
   525   0000E2                     	ds	2
   526                           
   527                           	psect	cstackCOMRAM
   528   000001                     __pcstackCOMRAM:
   529                           	callstack 0
   530   000001                     EUSART_ASYNC_ReadByte_NonBlocking@_eusart:
   531                           	callstack 0
   532   000001                     gpio_pin_toggle_logic@_pin_config_t:
   533                           	callstack 0
   534   000001                     i2gpio_pin_write_logic@_pin_config_t:
   535                           	callstack 0
   536                           
   537                           ; 2 bytes @ 0x0
   538   000001                     	ds	2
   539   000003                     ??_gpio_pin_toggle_logic:
   540   000003                     i2gpio_pin_write_logic@logic:
   541                           	callstack 0
   542   000003                     EUSART_ASYNC_ReadByte_NonBlocking@_data:
   543                           	callstack 0
   544                           
   545                           ; 2 bytes @ 0x2
   546   000003                     	ds	1
   547   000004                     ??i2_gpio_pin_write_logic:
   548                           
   549                           ; 1 bytes @ 0x3
   550   000004                     	ds	1
   551   000005                     EUSART_ASYNC_ReadByte_NonBlocking@ret:
   552                           	callstack 0
   553                           
   554                           ; 1 bytes @ 0x4
   555   000005                     	ds	3
   556   000008                     led_toggle_logic@led:
   557                           	callstack 0
   558                           
   559                           ; 2 bytes @ 0x7
   560   000008                     	ds	2
   561   00000A                     ??_led_toggle_logic:
   562   00000A                     led_turn_on@led:
   563                           	callstack 0
   564                           
   565                           ; 2 bytes @ 0x9
   566   00000A                     	ds	1
   567   00000B                     led_toggle_logic@pin_obj:
   568                           	callstack 0
   569                           
   570                           ; 1 bytes @ 0xA
   571   00000B                     	ds	1
   572   00000C                     ??_led_turn_on:
   573   00000C                     
   574                           ; 1 bytes @ 0xB
   575   00000C                     	ds	1
   576   00000D                     led_turn_on@pin_obj:
   577                           	callstack 0
   578                           
   579                           ; 1 bytes @ 0xC
   580   00000D                     	ds	1
   581   00000E                     ??_EUSART_OUT:
   582                           
   583                           ; 1 bytes @ 0xD
   584   00000E                     	ds	2
   585   000010                     ??_InterruptManager:
   586                           
   587                           ; 1 bytes @ 0xF
   588   000010                     	ds	6
   589   000016                     ?___fltol:
   590                           	callstack 0
   591   000016                     ?___xxtofl:
   592                           	callstack 0
   593   000016                     eusart_async_tx_init@_eusart:
   594                           	callstack 0
   595   000016                     eusart_async_rx_init@_eusart:
   596                           	callstack 0
   597   000016                     gpio_pin_direction_init@_pin_config_t:
   598                           	callstack 0
   599   000016                     gpio_pin_write_logic@_pin_config_t:
   600                           	callstack 0
   601   000016                     ___fltol@f1:
   602                           	callstack 0
   603   000016                     ___xxtofl@val:
   604                           	callstack 0
   605                           
   606                           ; 4 bytes @ 0x15
   607   000016                     	ds	2
   608   000018                     ??_gpio_pin_direction_init:
   609   000018                     gpio_pin_write_logic@logic:
   610                           	callstack 0
   611                           
   612                           ; 1 bytes @ 0x17
   613   000018                     	ds	1
   614   000019                     ??_gpio_pin_write_logic:
   615                           
   616                           ; 1 bytes @ 0x18
   617   000019                     	ds	1
   618   00001A                     ??___fltol:
   619   00001A                     ??___xxtofl:
   620                           
   621                           ; 1 bytes @ 0x19
   622   00001A                     	ds	4
   623   00001E                     gpio_pin_direction_init@ret:
   624                           	callstack 0
   625   00001E                     ___fltol@sign1:
   626                           	callstack 0
   627   00001E                     ___xxtofl@sign:
   628                           	callstack 0
   629                           
   630                           ; 1 bytes @ 0x1D
   631   00001E                     	ds	1
   632   00001F                     gpio_pin_write_logic@ret:
   633                           	callstack 0
   634   00001F                     ___fltol@exp1:
   635                           	callstack 0
   636   00001F                     ___xxtofl@exp:
   637                           	callstack 0
   638                           
   639                           ; 1 bytes @ 0x1E
   640   00001F                     	ds	1
   641   000020                     led_initialize@led:
   642                           	callstack 0
   643   000020                     ___xxtofl@arg:
   644                           	callstack 0
   645                           
   646                           ; 4 bytes @ 0x1F
   647   000020                     	ds	2
   648   000022                     ??_led_initialize:
   649                           
   650                           ; 1 bytes @ 0x21
   651   000022                     	ds	1
   652   000023                     led_initialize@pin_obj:
   653                           	callstack 0
   654                           
   655                           ; 1 bytes @ 0x22
   656   000023                     	ds	1
   657   000024                     ?___fldiv:
   658                           	callstack 0
   659   000024                     ___fldiv@b:
   660                           	callstack 0
   661                           
   662                           ; 4 bytes @ 0x23
   663   000024                     	ds	4
   664   000028                     ___fldiv@a:
   665                           	callstack 0
   666                           
   667                           ; 4 bytes @ 0x27
   668   000028                     	ds	4
   669   00002C                     ??___fldiv:
   670                           
   671                           ; 1 bytes @ 0x2B
   672   00002C                     	ds	4
   673   000030                     ___fldiv@rem:
   674                           	callstack 0
   675                           
   676                           ; 4 bytes @ 0x2F
   677   000030                     	ds	4
   678   000034                     ___fldiv@sign:
   679                           	callstack 0
   680                           
   681                           ; 1 bytes @ 0x33
   682   000034                     	ds	1
   683   000035                     ___fldiv@new_exp:
   684                           	callstack 0
   685                           
   686                           ; 2 bytes @ 0x34
   687   000035                     	ds	2
   688   000037                     ___fldiv@grs:
   689                           	callstack 0
   690                           
   691                           ; 4 bytes @ 0x36
   692   000037                     	ds	4
   693   00003B                     ___fldiv@bexp:
   694                           	callstack 0
   695                           
   696                           ; 1 bytes @ 0x3A
   697   00003B                     	ds	1
   698   00003C                     ___fldiv@aexp:
   699                           	callstack 0
   700                           
   701                           ; 1 bytes @ 0x3B
   702   00003C                     	ds	1
   703   00003D                     ?___fladd:
   704                           	callstack 0
   705   00003D                     ___fladd@b:
   706                           	callstack 0
   707                           
   708                           ; 4 bytes @ 0x3C
   709   00003D                     	ds	4
   710   000041                     ___fladd@a:
   711                           	callstack 0
   712                           
   713                           ; 4 bytes @ 0x40
   714   000041                     	ds	4
   715   000045                     
   716                           ; 1 bytes @ 0x44
   717 ;;
   718 ;;Main: autosize = 0, tempsize = 0, incstack = 0, save=0
   719 ;;
   720 ;; *************** function _main *****************
   721 ;; Defined at:
   722 ;;		line 472 in file "Application.c"
   723 ;; Parameters:    Size  Location     Type
   724 ;;		None
   725 ;; Auto vars:     Size  Location     Type
   726 ;;		None
   727 ;; Return value:  Size  Location     Type
   728 ;;                  2  1341[None  ] int 
   729 ;; Registers used:
   730 ;;		wreg, fsr2l, fsr2h, status,2, status,0, prodl, prodh, cstack
   731 ;; Tracked objects:
   732 ;;		On entry : 0/0
   733 ;;		On exit  : 0/0
   734 ;;		Unchanged: 0/0
   735 ;; Data sizes:     COMRAM   BANK0   BANK1   BANK2   BANK3   BANK4   BANK5   BANK6   BANK7   BANK8   BANK9  BANK10  BANK1
      +1  BANK12  BANK13  BANK14  BANK15
   736 ;;      Params:         0       0       0       0       0       0       0       0       0       0       0       0       
      +0       0       0       0       0
   737 ;;      Locals:         0       0       0       0       0       0       0       0       0       0       0       0       
      +0       0       0       0       0
   738 ;;      Temps:          0       0       0       0       0       0       0       0       0       0       0       0       
      +0       0       0       0       0
   739 ;;      Totals:         0       0       0       0       0       0       0       0       0       0       0       0       
      +0       0       0       0       0
   740 ;;Total ram usage:        0 bytes
   741 ;; Hardware stack levels required when called: 9
   742 ;; This function calls:
   743 ;;		_Application_initialize
   744 ;; This function is called by:
   745 ;;		Startup code after reset
   746 ;; This function uses a non-reentrant model
   747 ;;
   748                           
   749                           	psect	text0
   750   002BC4                     __ptext0:
   751                           	callstack 0
   752   002BC4                     _main:
   753                           	callstack 22
   754   002BC4                     
   755                           ;Application.c: 473:     Application_initialize();
   756   002BC4  ECC7  F015         	call	_Application_initialize	;wreg free
   757   002BC8                     l1342:
   758   002BC8  EFE4  F015         	goto	l1342
   759   002BCC  EF07  F000         	goto	start
   760   002BD0                     __end_of_main:
   761                           	callstack 0
   762                           
   763 ;; *************** function _Application_initialize *****************
   764 ;; Defined at:
   765 ;;		line 513 in file "Application.c"
   766 ;; Parameters:    Size  Location     Type
   767 ;;		None
   768 ;; Auto vars:     Size  Location     Type
   769 ;;		None
   770 ;; Return value:  Size  Location     Type
   771 ;;                  1    wreg      void 
   772 ;; Registers used:
   773 ;;		wreg, fsr2l, fsr2h, status,2, status,0, prodl, prodh, cstack
   774 ;; Tracked objects:
   775 ;;		On entry : 0/0
   776 ;;		On exit  : 0/0
   777 ;;		Unchanged: 0/0
   778 ;; Data sizes:     COMRAM   BANK0   BANK1   BANK2   BANK3   BANK4   BANK5   BANK6   BANK7   BANK8   BANK9  BANK10  BANK1
      +1  BANK12  BANK13  BANK14  BANK15
   779 ;;      Params:         0       0       0       0       0       0       0       0       0       0       0       0       
      +0       0       0       0       0
   780 ;;      Locals:         0       0       0       0       0       0       0       0       0       0       0       0       
      +0       0       0       0       0
   781 ;;      Temps:          0       0       0       0       0       0       0       0       0       0       0       0       
      +0       0       0       0       0
   782 ;;      Totals:         0       0       0       0       0       0       0       0       0       0       0       0       
      +0       0       0       0       0
   783 ;;Total ram usage:        0 bytes
   784 ;; Hardware stack levels used: 1
   785 ;; Hardware stack levels required when called: 8
   786 ;; This function calls:
   787 ;;		_EUSART_ASYNC_Init
   788 ;;		_led_initialize
   789 ;; This function is called by:
   790 ;;		_main
   791 ;; This function uses a non-reentrant model
   792 ;;
   793                           
   794                           	psect	text1
   795   002B8E                     __ptext1:
   796                           	callstack 0
   797   002B8E                     _Application_initialize:
   798                           	callstack 22
   799   002B8E                     
   800                           ;Application.c: 515:     EUSART_ASYNC_Init(&usart_obj);
   801   002B8E  0E9E               	movlw	low _usart_obj
   802   002B90  0100               	movlb	0	; () banked
   803   002B92  6FE2               	movwf	EUSART_ASYNC_Init@_eusart& (0+255),b
   804   002B94  0E00               	movlw	high _usart_obj
   805   002B96  6FE3               	movwf	(EUSART_ASYNC_Init@_eusart+1)& (0+255),b
   806   002B98  EC3E  F015         	call	_EUSART_ASYNC_Init	;wreg free
   807   002B9C                     
   808                           ;Application.c: 516:     led_initialize(&led1);
   809   002B9C  0E68               	movlw	low _led1
   810   002B9E  6E20               	movwf	led_initialize@led^0,c
   811   002BA0  0E00               	movlw	high _led1
   812   002BA2  6E21               	movwf	(led_initialize@led+1)^0,c
   813   002BA4  ECE2  F013         	call	_led_initialize	;wreg free
   814   002BA8                     
   815                           ;Application.c: 517:     led_initialize(&led2);
   816   002BA8  0E67               	movlw	low _led2
   817   002BAA  6E20               	movwf	led_initialize@led^0,c
   818   002BAC  0E00               	movlw	high _led2
   819   002BAE  6E21               	movwf	(led_initialize@led+1)^0,c
   820   002BB0  ECE2  F013         	call	_led_initialize	;wreg free
   821   002BB4  0012               	return		;funcret
   822   002BB6                     __end_of_Application_initialize:
   823                           	callstack 0
   824                           
   825 ;; *************** function _led_initialize *****************
   826 ;; Defined at:
   827 ;;		line 20 in file "ECU_Layer/Ecu_led.c"
   828 ;; Parameters:    Size  Location     Type
   829 ;;  led             2   31[COMRAM] PTR const struct .
   830 ;;		 -> led2(1), led1(1), 
   831 ;; Auto vars:     Size  Location     Type
   832 ;;  pin_obj         1   34[COMRAM] struct .
   833 ;;  ret             1    0        unsigned char 
   834 ;; Return value:  Size  Location     Type
   835 ;;                  1    wreg      unsigned char 
   836 ;; Registers used:
   837 ;;		wreg, fsr2l, fsr2h, status,2, status,0, prodl, prodh, cstack
   838 ;; Tracked objects:
   839 ;;		On entry : 0/0
   840 ;;		On exit  : 0/0
   841 ;;		Unchanged: 0/0
   842 ;; Data sizes:     COMRAM   BANK0   BANK1   BANK2   BANK3   BANK4   BANK5   BANK6   BANK7   BANK8   BANK9  BANK10  BANK1
      +1  BANK12  BANK13  BANK14  BANK15
   843 ;;      Params:         2       0       0       0       0       0       0       0       0       0       0       0       
      +0       0       0       0       0
   844 ;;      Locals:         1       0       0       0       0       0       0       0       0       0       0       0       
      +0       0       0       0       0
   845 ;;      Temps:          1       0       0       0       0       0       0       0       0       0       0       0       
      +0       0       0       0       0
   846 ;;      Totals:         4       0       0       0       0       0       0       0       0       0       0       0       
      +0       0       0       0       0
   847 ;;Total ram usage:        4 bytes
   848 ;; Hardware stack levels used: 1
   849 ;; Hardware stack levels required when called: 6
   850 ;; This function calls:
   851 ;;		_gpio_pin_direction_init
   852 ;;		_gpio_pin_write_logic
   853 ;; This function is called by:
   854 ;;		_Application_initialize
   855 ;; This function uses a non-reentrant model
   856 ;;
   857                           
   858                           	psect	text2
   859   0027C4                     __ptext2:
   860                           	callstack 0
   861   0027C4                     _led_initialize:
   862                           	callstack 23
   863   0027C4                     
   864                           ;ECU_Layer/Ecu_led.c: 22:     if(led == ((void*)0)) ret = (STD_ReturnType)0x00;
   865   0027C4  5020               	movf	led_initialize@led^0,w,c
   866   0027C6  1021               	iorwf	(led_initialize@led+1)^0,w,c
   867   0027C8  A4D8               	btfss	status,2,c
   868   0027CA  EFE9  F013         	goto	u4561
   869   0027CE  EFEB  F013         	goto	u4560
   870   0027D2                     u4561:
   871   0027D2  EFED  F013         	goto	l283
   872   0027D6                     u4560:
   873   0027D6  EF28  F014         	goto	l287
   874   0027DA                     l283:
   875                           
   876                           ;ECU_Layer/Ecu_led.c: 24:        pin_config_t pin_obj = {
   877   0027DA  C05C  F023         	movff	led_initialize@F3043,led_initialize@pin_obj
   878   0027DE  C020  FFD9         	movff	led_initialize@led,fsr2l
   879   0027E2  C021  FFDA         	movff	led_initialize@led+1,fsr2h
   880   0027E6  50DF               	movf	223,w,c
   881   0027E8  0B0F               	andlw	15
   882   0027EA  6E22               	movwf	??_led_initialize^0,c
   883   0027EC  5023               	movf	led_initialize@pin_obj^0,w,c
   884   0027EE  1822               	xorwf	??_led_initialize^0,w,c
   885   0027F0  0BF8               	andlw	-8
   886   0027F2  1822               	xorwf	??_led_initialize^0,w,c
   887   0027F4  6E23               	movwf	led_initialize@pin_obj^0,c
   888   0027F6  C020  FFD9         	movff	led_initialize@led,fsr2l
   889   0027FA  C021  FFDA         	movff	led_initialize@led+1,fsr2h
   890   0027FE  38DF               	swapf	223,w,c
   891   002800  0B07               	andlw	7
   892   002802  6E22               	movwf	??_led_initialize^0,c
   893   002804  4622               	rlncf	??_led_initialize^0,f,c
   894   002806  4622               	rlncf	??_led_initialize^0,f,c
   895   002808  4622               	rlncf	??_led_initialize^0,f,c
   896   00280A  5023               	movf	led_initialize@pin_obj^0,w,c
   897   00280C  1822               	xorwf	??_led_initialize^0,w,c
   898   00280E  0BC7               	andlw	-57
   899   002810  1822               	xorwf	??_led_initialize^0,w,c
   900   002812  6E23               	movwf	led_initialize@pin_obj^0,c
   901   002814  9C23               	bcf	led_initialize@pin_obj^0,6,c
   902   002816  C020  FFD9         	movff	led_initialize@led,fsr2l
   903   00281A  C021  FFDA         	movff	led_initialize@led+1,fsr2h
   904   00281E  AEDF               	btfss	indf2,7,c
   905   002820  D002               	bra	u4575
   906   002822  8E23               	bsf	led_initialize@pin_obj^0,7,c
   907   002824  D001               	bra	u4577
   908   002826                     u4575:
   909   002826  9E23               	bcf	led_initialize@pin_obj^0,7,c
   910   002828                     u4577:
   911   002828                     
   912                           ;ECU_Layer/Ecu_led.c: 30:         gpio_pin_direction_init(&pin_obj);
   913   002828  0E23               	movlw	low led_initialize@pin_obj
   914   00282A  6E16               	movwf	gpio_pin_direction_init@_pin_config_t^0,c
   915   00282C  0E00               	movlw	high led_initialize@pin_obj
   916   00282E  6E17               	movwf	(gpio_pin_direction_init@_pin_config_t+1)^0,c
   917   002830  ECBF  F010         	call	_gpio_pin_direction_init	;wreg free
   918   002834                     
   919                           ;ECU_Layer/Ecu_led.c: 31:         gpio_pin_write_logic(&pin_obj, led->led_status);
   920   002834  0E23               	movlw	low led_initialize@pin_obj
   921   002836  6E16               	movwf	gpio_pin_write_logic@_pin_config_t^0,c
   922   002838  0E00               	movlw	high led_initialize@pin_obj
   923   00283A  6E17               	movwf	(gpio_pin_write_logic@_pin_config_t+1)^0,c
   924   00283C  C020  FFD9         	movff	led_initialize@led,fsr2l
   925   002840  C021  FFDA         	movff	led_initialize@led+1,fsr2h
   926   002844  0E00               	movlw	0
   927   002846  BEDF               	btfsc	indf2,7,c
   928   002848  0E01               	movlw	1
   929   00284A  6E18               	movwf	gpio_pin_write_logic@logic^0,c
   930   00284C  EC70  F011         	call	_gpio_pin_write_logic	;wreg free
   931   002850                     l287:
   932   002850  0012               	return		;funcret
   933   002852                     __end_of_led_initialize:
   934                           	callstack 0
   935                           
   936 ;; *************** function _gpio_pin_write_logic *****************
   937 ;; Defined at:
   938 ;;		line 70 in file "MCAL_Layer/hal_gpio.c"
   939 ;; Parameters:    Size  Location     Type
   940 ;;  _pin_config_    2   21[COMRAM] PTR const struct .
   941 ;;		 -> relay_turn_off@relayy(1), relay_turn_on@relayy(1), relay_initialize@relayy(1), led_turn_off@pin_obj(1), 
   942 ;;		 -> led_turn_on@pin_obj(1), led_initialize@pin_obj(1), Dc_motor_stop@dc_motor_pin_2(1), Dc_motor_stop@dc_motor_pin_1
      +(1), 
   943 ;;		 -> Dc_motor_turn_right@dc_motor_pin_2(1), Dc_motor_turn_right@dc_motor_pin_1(1), Dc_motor_turn_left@dc_motor_pin_2(
      +1), Dc_motor_turn_left@dc_motor_pin_1(1), 
   944 ;;		 -> Dc_motor_initialize@dc_motor_pin_2(1), Dc_motor_initialize@dc_motor_pin_1(1), 
   945 ;;  logic           1   23[COMRAM] enum E2965
   946 ;; Auto vars:     Size  Location     Type
   947 ;;  ret             1   30[COMRAM] unsigned char 
   948 ;; Return value:  Size  Location     Type
   949 ;;                  1    wreg      unsigned char 
   950 ;; Registers used:
   951 ;;		wreg, fsr2l, fsr2h, status,2, status,0, prodl, prodh
   952 ;; Tracked objects:
   953 ;;		On entry : 0/0
   954 ;;		On exit  : 0/0
   955 ;;		Unchanged: 0/0
   956 ;; Data sizes:     COMRAM   BANK0   BANK1   BANK2   BANK3   BANK4   BANK5   BANK6   BANK7   BANK8   BANK9  BANK10  BANK1
      +1  BANK12  BANK13  BANK14  BANK15
   957 ;;      Params:         3       0       0       0       0       0       0       0       0       0       0       0       
      +0       0       0       0       0
   958 ;;      Locals:         1       0       0       0       0       0       0       0       0       0       0       0       
      +0       0       0       0       0
   959 ;;      Temps:          6       0       0       0       0       0       0       0       0       0       0       0       
      +0       0       0       0       0
   960 ;;      Totals:        10       0       0       0       0       0       0       0       0       0       0       0       
      +0       0       0       0       0
   961 ;;Total ram usage:       10 bytes
   962 ;; Hardware stack levels used: 1
   963 ;; Hardware stack levels required when called: 5
   964 ;; This function calls:
   965 ;;		Nothing
   966 ;; This function is called by:
   967 ;;		_led_initialize
   968 ;;		_keypad_initialize
   969 ;;		_keypad_get_value
   970 ;;		_segment_initialize
   971 ;;		_segment_write_num
   972 ;;		_Dc_motor_initialize
   973 ;;		_Dc_motor_turn_left
   974 ;;		_Dc_motor_turn_right
   975 ;;		_Dc_motor_stop
   976 ;;		_lcd_4_bit_initialize
   977 ;;		_lcd_4_bit_send_command
   978 ;;		_lcd_4_bit_send_char_data
   979 ;;		_lcd_8_bit_initialize
   980 ;;		_lcd_8_bit_send_command
   981 ;;		_lcd_8_bit_send_char_data
   982 ;;		_lcd_4bit_send_t
   983 ;;		_lcd_8bit_send_t
   984 ;;		_led_turn_off
   985 ;;		_relay_initialize
   986 ;;		_relay_turn_on
   987 ;;		_relay_turn_off
   988 ;; This function uses a non-reentrant model
   989 ;;
   990                           
   991                           	psect	text3
   992   0022E0                     __ptext3:
   993                           	callstack 0
   994   0022E0                     _gpio_pin_write_logic:
   995                           	callstack 23
   996   0022E0                     
   997                           ;MCAL_Layer/hal_gpio.c: 71:     STD_ReturnType ret = (STD_ReturnType)0x01;
   998   0022E0  0E01               	movlw	1
   999   0022E2  6E1F               	movwf	gpio_pin_write_logic@ret^0,c
  1000   0022E4                     
  1001                           ;MCAL_Layer/hal_gpio.c: 72:     if(_pin_config_t == ((void*)0) || (_pin_config_t->port >
      +                           5 - 1) || (_pin_config_t->pin > 8 - 1)) ret = (STD_ReturnType)0x00;
  1002   0022E4  5016               	movf	gpio_pin_write_logic@_pin_config_t^0,w,c
  1003   0022E6  1017               	iorwf	(gpio_pin_write_logic@_pin_config_t+1)^0,w,c
  1004   0022E8  B4D8               	btfsc	status,2,c
  1005   0022EA  EF79  F011         	goto	u4351
  1006   0022EE  EF7B  F011         	goto	u4350
  1007   0022F2                     u4351:
  1008   0022F2  EF9B  F011         	goto	l5079
  1009   0022F6                     u4350:
  1010   0022F6  C016  FFD9         	movff	gpio_pin_write_logic@_pin_config_t,fsr2l
  1011   0022FA  C017  FFDA         	movff	gpio_pin_write_logic@_pin_config_t+1,fsr2h
  1012   0022FE  50DF               	movf	223,w,c
  1013   002300  0B07               	andlw	7
  1014   002302  6E19               	movwf	??_gpio_pin_write_logic^0,c
  1015   002304  0E05               	movlw	5
  1016   002306  6019               	cpfslt	??_gpio_pin_write_logic^0,c
  1017   002308  EF88  F011         	goto	u4361
  1018   00230C  EF8A  F011         	goto	u4360
  1019   002310                     u4361:
  1020   002310  EF9B  F011         	goto	l5079
  1021   002314                     u4360:
  1022   002314  C016  FFD9         	movff	gpio_pin_write_logic@_pin_config_t,fsr2l
  1023   002318  C017  FFDA         	movff	gpio_pin_write_logic@_pin_config_t+1,fsr2h
  1024   00231C  30DF               	rrcf	223,w,c
  1025   00231E  32E8               	rrcf	wreg,f,c
  1026   002320  32E8               	rrcf	wreg,f,c
  1027   002322  0B07               	andlw	7
  1028   002324  6E19               	movwf	??_gpio_pin_write_logic^0,c
  1029   002326  0E07               	movlw	7
  1030   002328  6419               	cpfsgt	??_gpio_pin_write_logic^0,c
  1031   00232A  EF99  F011         	goto	u4371
  1032   00232E  EF9B  F011         	goto	u4370
  1033   002332                     u4371:
  1034   002332  EFFE  F011         	goto	l5087
  1035   002336                     u4370:
  1036   002336                     l5079:
  1037   002336  0E00               	movlw	0
  1038   002338  6E1F               	movwf	gpio_pin_write_logic@ret^0,c
  1039   00233A  EF13  F012         	goto	l5089
  1040   00233E                     l5081:
  1041                           
  1042                           ;MCAL_Layer/hal_gpio.c: 76:                 (*lat_register[_pin_config_t->port] &= ~(1 <
      +                          < _pin_config_t->pin));
  1043   00233E  C016  FFD9         	movff	gpio_pin_write_logic@_pin_config_t,fsr2l
  1044   002342  C017  FFDA         	movff	gpio_pin_write_logic@_pin_config_t+1,fsr2h
  1045   002346  30DF               	rrcf	223,w,c
  1046   002348  32E8               	rrcf	wreg,f,c
  1047   00234A  32E8               	rrcf	wreg,f,c
  1048   00234C  0B07               	andlw	7
  1049   00234E  6E19               	movwf	??_gpio_pin_write_logic^0,c
  1050   002350  0E01               	movlw	1
  1051   002352  6E1A               	movwf	(??_gpio_pin_write_logic+1)^0,c
  1052   002354  2A19               	incf	??_gpio_pin_write_logic^0,f,c
  1053   002356  EFAF  F011         	goto	u4384
  1054   00235A                     u4385:
  1055   00235A  90D8               	bcf	status,0,c
  1056   00235C  361A               	rlcf	(??_gpio_pin_write_logic+1)^0,f,c
  1057   00235E                     u4384:
  1058   00235E  2E19               	decfsz	??_gpio_pin_write_logic^0,f,c
  1059   002360  EFAD  F011         	goto	u4385
  1060   002364  501A               	movf	(??_gpio_pin_write_logic+1)^0,w,c
  1061   002366  0AFF               	xorlw	255
  1062   002368  6E1B               	movwf	(??_gpio_pin_write_logic+2)^0,c
  1063   00236A  C016  FFD9         	movff	gpio_pin_write_logic@_pin_config_t,fsr2l
  1064   00236E  C017  FFDA         	movff	gpio_pin_write_logic@_pin_config_t+1,fsr2h
  1065   002372  50DF               	movf	223,w,c
  1066   002374  0B07               	andlw	7
  1067   002376  6E1C               	movwf	(??_gpio_pin_write_logic+3)^0,c
  1068   002378  501C               	movf	(??_gpio_pin_write_logic+3)^0,w,c
  1069   00237A  0D02               	mullw	2
  1070   00237C  0E8A               	movlw	low _lat_register
  1071   00237E  24F3               	addwf	243,w,c
  1072   002380  6ED9               	movwf	fsr2l,c
  1073   002382  0E00               	movlw	high _lat_register
  1074   002384  20F4               	addwfc	prodh,w,c
  1075   002386  6EDA               	movwf	fsr2h,c
  1076   002388  CFDE F01D          	movff	postinc2,??_gpio_pin_write_logic+4
  1077   00238C  CFDD F01E          	movff	postdec2,??_gpio_pin_write_logic+5
  1078   002390  C01D  FFD9         	movff	??_gpio_pin_write_logic+4,fsr2l
  1079   002394  C01E  FFDA         	movff	??_gpio_pin_write_logic+5,fsr2h
  1080   002398  501B               	movf	(??_gpio_pin_write_logic+2)^0,w,c
  1081   00239A  16DF               	andwf	indf2,f,c
  1082                           
  1083                           ;MCAL_Layer/hal_gpio.c: 77:                 break;
  1084   00239C  EF13  F012         	goto	l5089
  1085   0023A0                     l5083:
  1086                           
  1087                           ;MCAL_Layer/hal_gpio.c: 79:                 (*lat_register[_pin_config_t->port] |= (1 <<
      +                           _pin_config_t->pin));
  1088   0023A0  C016  FFD9         	movff	gpio_pin_write_logic@_pin_config_t,fsr2l
  1089   0023A4  C017  FFDA         	movff	gpio_pin_write_logic@_pin_config_t+1,fsr2h
  1090   0023A8  30DF               	rrcf	223,w,c
  1091   0023AA  32E8               	rrcf	wreg,f,c
  1092   0023AC  32E8               	rrcf	wreg,f,c
  1093   0023AE  0B07               	andlw	7
  1094   0023B0  6E19               	movwf	??_gpio_pin_write_logic^0,c
  1095   0023B2  0E01               	movlw	1
  1096   0023B4  6E1A               	movwf	(??_gpio_pin_write_logic+1)^0,c
  1097   0023B6  2A19               	incf	??_gpio_pin_write_logic^0,f,c
  1098   0023B8  EFE0  F011         	goto	u4394
  1099   0023BC                     u4395:
  1100   0023BC  90D8               	bcf	status,0,c
  1101   0023BE  361A               	rlcf	(??_gpio_pin_write_logic+1)^0,f,c
  1102   0023C0                     u4394:
  1103   0023C0  2E19               	decfsz	??_gpio_pin_write_logic^0,f,c
  1104   0023C2  EFDE  F011         	goto	u4395
  1105   0023C6  C016  FFD9         	movff	gpio_pin_write_logic@_pin_config_t,fsr2l
  1106   0023CA  C017  FFDA         	movff	gpio_pin_write_logic@_pin_config_t+1,fsr2h
  1107   0023CE  50DF               	movf	223,w,c
  1108   0023D0  0B07               	andlw	7
  1109   0023D2  6E1B               	movwf	(??_gpio_pin_write_logic+2)^0,c
  1110   0023D4  501B               	movf	(??_gpio_pin_write_logic+2)^0,w,c
  1111   0023D6  0D02               	mullw	2
  1112   0023D8  0E8A               	movlw	low _lat_register
  1113   0023DA  24F3               	addwf	243,w,c
  1114   0023DC  6ED9               	movwf	fsr2l,c
  1115   0023DE  0E00               	movlw	high _lat_register
  1116   0023E0  20F4               	addwfc	prodh,w,c
  1117   0023E2  6EDA               	movwf	fsr2h,c
  1118   0023E4  CFDE F01C          	movff	postinc2,??_gpio_pin_write_logic+3
  1119   0023E8  CFDD F01D          	movff	postdec2,??_gpio_pin_write_logic+4
  1120   0023EC  C01C  FFD9         	movff	??_gpio_pin_write_logic+3,fsr2l
  1121   0023F0  C01D  FFDA         	movff	??_gpio_pin_write_logic+4,fsr2h
  1122   0023F4  501A               	movf	(??_gpio_pin_write_logic+1)^0,w,c
  1123   0023F6  12DF               	iorwf	indf2,f,c
  1124                           
  1125                           ;MCAL_Layer/hal_gpio.c: 80:                 break;
  1126   0023F8  EF13  F012         	goto	l5089
  1127   0023FC                     l5087:
  1128   0023FC  5018               	movf	gpio_pin_write_logic@logic^0,w,c
  1129   0023FE  6E19               	movwf	??_gpio_pin_write_logic^0,c
  1130   002400  6A1A               	clrf	(??_gpio_pin_write_logic+1)^0,c
  1131                           
  1132                           ; Switch on 2 bytes has been partitioned into a top level switch of size 1, and 1 sub-sw
      +                          itches
  1133                           ; Switch size 1, requested type "simple"
  1134                           ; Number of cases is 1, Range of values is 0 to 0
  1135                           ; switch strategies available:
  1136                           ; Name         Instructions Cycles
  1137                           ; simple_byte            4     3 (average)
  1138                           ;	Chosen strategy is simple_byte
  1139   002402  501A               	movf	(??_gpio_pin_write_logic+1)^0,w,c
  1140   002404  0A00               	xorlw	0	; case 0
  1141   002406  B4D8               	btfsc	status,2,c
  1142   002408  EF08  F012         	goto	l7169
  1143   00240C  EF9B  F011         	goto	l5079
  1144   002410                     l7169:
  1145                           
  1146                           ; Switch size 1, requested type "simple"
  1147                           ; Number of cases is 2, Range of values is 0 to 1
  1148                           ; switch strategies available:
  1149                           ; Name         Instructions Cycles
  1150                           ; simple_byte            7     4 (average)
  1151                           ;	Chosen strategy is simple_byte
  1152   002410  5019               	movf	??_gpio_pin_write_logic^0,w,c
  1153   002412  0A00               	xorlw	0	; case 0
  1154   002414  B4D8               	btfsc	status,2,c
  1155   002416  EF9F  F011         	goto	l5081
  1156   00241A  0A01               	xorlw	1	; case 1
  1157   00241C  B4D8               	btfsc	status,2,c
  1158   00241E  EFD0  F011         	goto	l5083
  1159   002422  EF9B  F011         	goto	l5079
  1160   002426                     l5089:
  1161                           
  1162                           ;MCAL_Layer/hal_gpio.c: 84:     return ret;
  1163   002426  501F               	movf	gpio_pin_write_logic@ret^0,w,c
  1164   002428  0012               	return		;funcret
  1165   00242A                     __end_of_gpio_pin_write_logic:
  1166                           	callstack 0
  1167                           
  1168 ;; *************** function _gpio_pin_direction_init *****************
  1169 ;; Defined at:
  1170 ;;		line 24 in file "MCAL_Layer/hal_gpio.c"
  1171 ;; Parameters:    Size  Location     Type
  1172 ;;  _pin_config_    2   21[COMRAM] PTR const struct .
  1173 ;;		 -> relay_initialize@relayy(1), led_initialize@pin_obj(1), Dc_motor_initialize@dc_motor_pin_2(1), Dc_motor_initializ
      +e@dc_motor_pin_1(1), 
  1174 ;; Auto vars:     Size  Location     Type
  1175 ;;  ret             1   29[COMRAM] unsigned char 
  1176 ;; Return value:  Size  Location     Type
  1177 ;;                  1    wreg      unsigned char 
  1178 ;; Registers used:
  1179 ;;		wreg, fsr2l, fsr2h, status,2, status,0, prodl, prodh
  1180 ;; Tracked objects:
  1181 ;;		On entry : 0/0
  1182 ;;		On exit  : 0/0
  1183 ;;		Unchanged: 0/0
  1184 ;; Data sizes:     COMRAM   BANK0   BANK1   BANK2   BANK3   BANK4   BANK5   BANK6   BANK7   BANK8   BANK9  BANK10  BANK1
      +1  BANK12  BANK13  BANK14  BANK15
  1185 ;;      Params:         2       0       0       0       0       0       0       0       0       0       0       0       
      +0       0       0       0       0
  1186 ;;      Locals:         1       0       0       0       0       0       0       0       0       0       0       0       
      +0       0       0       0       0
  1187 ;;      Temps:          6       0       0       0       0       0       0       0       0       0       0       0       
      +0       0       0       0       0
  1188 ;;      Totals:         9       0       0       0       0       0       0       0       0       0       0       0       
      +0       0       0       0       0
  1189 ;;Total ram usage:        9 bytes
  1190 ;; Hardware stack levels used: 1
  1191 ;; Hardware stack levels required when called: 5
  1192 ;; This function calls:
  1193 ;;		Nothing
  1194 ;; This function is called by:
  1195 ;;		_led_initialize
  1196 ;;		_keypad_initialize
  1197 ;;		_button_initialize
  1198 ;;		_segment_initialize
  1199 ;;		_Dc_motor_initialize
  1200 ;;		_lcd_4_bit_initialize
  1201 ;;		_lcd_8_bit_initialize
  1202 ;;		_relay_initialize
  1203 ;;		_CCP_Init
  1204 ;;		_Interrupt_RBx_Init
  1205 ;;		_Interrupt_INTx_Pin
  1206 ;; This function uses a non-reentrant model
  1207 ;;
  1208                           
  1209                           	psect	text4
  1210   00217E                     __ptext4:
  1211                           	callstack 0
  1212   00217E                     _gpio_pin_direction_init:
  1213                           	callstack 23
  1214   00217E                     
  1215                           ;MCAL_Layer/hal_gpio.c: 25:     STD_ReturnType ret = (STD_ReturnType)0x01;
  1216   00217E  0E01               	movlw	1
  1217   002180  6E1E               	movwf	gpio_pin_direction_init@ret^0,c
  1218   002182                     
  1219                           ;MCAL_Layer/hal_gpio.c: 26:     if(_pin_config_t == ((void*)0) || (_pin_config_t->port >
      +                           (5 - 1)) || (_pin_config_t->pin > (8 - 1))) ret = (STD_ReturnType)0x00;
  1220   002182  5016               	movf	gpio_pin_direction_init@_pin_config_t^0,w,c
  1221   002184  1017               	iorwf	(gpio_pin_direction_init@_pin_config_t+1)^0,w,c
  1222   002186  B4D8               	btfsc	status,2,c
  1223   002188  EFC8  F010         	goto	u4281
  1224   00218C  EFCA  F010         	goto	u4280
  1225   002190                     u4281:
  1226   002190  EFEA  F010         	goto	l5053
  1227   002194                     u4280:
  1228   002194  C016  FFD9         	movff	gpio_pin_direction_init@_pin_config_t,fsr2l
  1229   002198  C017  FFDA         	movff	gpio_pin_direction_init@_pin_config_t+1,fsr2h
  1230   00219C  50DF               	movf	223,w,c
  1231   00219E  0B07               	andlw	7
  1232   0021A0  6E18               	movwf	??_gpio_pin_direction_init^0,c
  1233   0021A2  0E05               	movlw	5
  1234   0021A4  6018               	cpfslt	??_gpio_pin_direction_init^0,c
  1235   0021A6  EFD7  F010         	goto	u4291
  1236   0021AA  EFD9  F010         	goto	u4290
  1237   0021AE                     u4291:
  1238   0021AE  EFEA  F010         	goto	l5053
  1239   0021B2                     u4290:
  1240   0021B2  C016  FFD9         	movff	gpio_pin_direction_init@_pin_config_t,fsr2l
  1241   0021B6  C017  FFDA         	movff	gpio_pin_direction_init@_pin_config_t+1,fsr2h
  1242   0021BA  30DF               	rrcf	223,w,c
  1243   0021BC  32E8               	rrcf	wreg,f,c
  1244   0021BE  32E8               	rrcf	wreg,f,c
  1245   0021C0  0B07               	andlw	7
  1246   0021C2  6E18               	movwf	??_gpio_pin_direction_init^0,c
  1247   0021C4  0E07               	movlw	7
  1248   0021C6  6418               	cpfsgt	??_gpio_pin_direction_init^0,c
  1249   0021C8  EFE8  F010         	goto	u4301
  1250   0021CC  EFEA  F010         	goto	u4300
  1251   0021D0                     u4301:
  1252   0021D0  EF4D  F011         	goto	l5061
  1253   0021D4                     u4300:
  1254   0021D4                     l5053:
  1255   0021D4  0E00               	movlw	0
  1256   0021D6  6E1E               	movwf	gpio_pin_direction_init@ret^0,c
  1257   0021D8  EF6E  F011         	goto	l5063
  1258   0021DC                     l5055:
  1259                           
  1260                           ;MCAL_Layer/hal_gpio.c: 30:                 (*tris_register[_pin_config_t->port] &= ~(1 
      +                          << _pin_config_t->pin));
  1261   0021DC  C016  FFD9         	movff	gpio_pin_direction_init@_pin_config_t,fsr2l
  1262   0021E0  C017  FFDA         	movff	gpio_pin_direction_init@_pin_config_t+1,fsr2h
  1263   0021E4  30DF               	rrcf	223,w,c
  1264   0021E6  32E8               	rrcf	wreg,f,c
  1265   0021E8  32E8               	rrcf	wreg,f,c
  1266   0021EA  0B07               	andlw	7
  1267   0021EC  6E18               	movwf	??_gpio_pin_direction_init^0,c
  1268   0021EE  0E01               	movlw	1
  1269   0021F0  6E19               	movwf	(??_gpio_pin_direction_init+1)^0,c
  1270   0021F2  2A18               	incf	??_gpio_pin_direction_init^0,f,c
  1271   0021F4  EFFE  F010         	goto	u4314
  1272   0021F8                     u4315:
  1273   0021F8  90D8               	bcf	status,0,c
  1274   0021FA  3619               	rlcf	(??_gpio_pin_direction_init+1)^0,f,c
  1275   0021FC                     u4314:
  1276   0021FC  2E18               	decfsz	??_gpio_pin_direction_init^0,f,c
  1277   0021FE  EFFC  F010         	goto	u4315
  1278   002202  5019               	movf	(??_gpio_pin_direction_init+1)^0,w,c
  1279   002204  0AFF               	xorlw	255
  1280   002206  6E1A               	movwf	(??_gpio_pin_direction_init+2)^0,c
  1281   002208  C016  FFD9         	movff	gpio_pin_direction_init@_pin_config_t,fsr2l
  1282   00220C  C017  FFDA         	movff	gpio_pin_direction_init@_pin_config_t+1,fsr2h
  1283   002210  50DF               	movf	223,w,c
  1284   002212  0B07               	andlw	7
  1285   002214  6E1B               	movwf	(??_gpio_pin_direction_init+3)^0,c
  1286   002216  501B               	movf	(??_gpio_pin_direction_init+3)^0,w,c
  1287   002218  0D02               	mullw	2
  1288   00221A  0E94               	movlw	low _tris_register
  1289   00221C  24F3               	addwf	243,w,c
  1290   00221E  6ED9               	movwf	fsr2l,c
  1291   002220  0E00               	movlw	high _tris_register
  1292   002222  20F4               	addwfc	prodh,w,c
  1293   002224  6EDA               	movwf	fsr2h,c
  1294   002226  CFDE F01C          	movff	postinc2,??_gpio_pin_direction_init+4
  1295   00222A  CFDD F01D          	movff	postdec2,??_gpio_pin_direction_init+5
  1296   00222E  C01C  FFD9         	movff	??_gpio_pin_direction_init+4,fsr2l
  1297   002232  C01D  FFDA         	movff	??_gpio_pin_direction_init+5,fsr2h
  1298   002236  501A               	movf	(??_gpio_pin_direction_init+2)^0,w,c
  1299   002238  16DF               	andwf	indf2,f,c
  1300                           
  1301                           ;MCAL_Layer/hal_gpio.c: 31:                 break;
  1302   00223A  EF6E  F011         	goto	l5063
  1303   00223E                     l5057:
  1304                           
  1305                           ;MCAL_Layer/hal_gpio.c: 33:                 (*tris_register[_pin_config_t->port] |= (1 <
      +                          < _pin_config_t->pin));
  1306   00223E  C016  FFD9         	movff	gpio_pin_direction_init@_pin_config_t,fsr2l
  1307   002242  C017  FFDA         	movff	gpio_pin_direction_init@_pin_config_t+1,fsr2h
  1308   002246  30DF               	rrcf	223,w,c
  1309   002248  32E8               	rrcf	wreg,f,c
  1310   00224A  32E8               	rrcf	wreg,f,c
  1311   00224C  0B07               	andlw	7
  1312   00224E  6E18               	movwf	??_gpio_pin_direction_init^0,c
  1313   002250  0E01               	movlw	1
  1314   002252  6E19               	movwf	(??_gpio_pin_direction_init+1)^0,c
  1315   002254  2A18               	incf	??_gpio_pin_direction_init^0,f,c
  1316   002256  EF2F  F011         	goto	u4324
  1317   00225A                     u4325:
  1318   00225A  90D8               	bcf	status,0,c
  1319   00225C  3619               	rlcf	(??_gpio_pin_direction_init+1)^0,f,c
  1320   00225E                     u4324:
  1321   00225E  2E18               	decfsz	??_gpio_pin_direction_init^0,f,c
  1322   002260  EF2D  F011         	goto	u4325
  1323   002264  C016  FFD9         	movff	gpio_pin_direction_init@_pin_config_t,fsr2l
  1324   002268  C017  FFDA         	movff	gpio_pin_direction_init@_pin_config_t+1,fsr2h
  1325   00226C  50DF               	movf	223,w,c
  1326   00226E  0B07               	andlw	7
  1327   002270  6E1A               	movwf	(??_gpio_pin_direction_init+2)^0,c
  1328   002272  501A               	movf	(??_gpio_pin_direction_init+2)^0,w,c
  1329   002274  0D02               	mullw	2
  1330   002276  0E94               	movlw	low _tris_register
  1331   002278  24F3               	addwf	243,w,c
  1332   00227A  6ED9               	movwf	fsr2l,c
  1333   00227C  0E00               	movlw	high _tris_register
  1334   00227E  20F4               	addwfc	prodh,w,c
  1335   002280  6EDA               	movwf	fsr2h,c
  1336   002282  CFDE F01B          	movff	postinc2,??_gpio_pin_direction_init+3
  1337   002286  CFDD F01C          	movff	postdec2,??_gpio_pin_direction_init+4
  1338   00228A  C01B  FFD9         	movff	??_gpio_pin_direction_init+3,fsr2l
  1339   00228E  C01C  FFDA         	movff	??_gpio_pin_direction_init+4,fsr2h
  1340   002292  5019               	movf	(??_gpio_pin_direction_init+1)^0,w,c
  1341   002294  12DF               	iorwf	indf2,f,c
  1342                           
  1343                           ;MCAL_Layer/hal_gpio.c: 34:                 break;
  1344   002296  EF6E  F011         	goto	l5063
  1345   00229A                     l5061:
  1346   00229A  C016  FFD9         	movff	gpio_pin_direction_init@_pin_config_t,fsr2l
  1347   00229E  C017  FFDA         	movff	gpio_pin_direction_init@_pin_config_t+1,fsr2h
  1348   0022A2  BCDF               	btfsc	indf2,6,c
  1349   0022A4  EF56  F011         	goto	u4331
  1350   0022A8  EF59  F011         	goto	u4330
  1351   0022AC                     u4331:
  1352   0022AC  0E01               	movlw	1
  1353   0022AE  EF5A  F011         	goto	u4340
  1354   0022B2                     u4330:
  1355   0022B2  0E00               	movlw	0
  1356   0022B4                     u4340:
  1357   0022B4  6E18               	movwf	??_gpio_pin_direction_init^0,c
  1358   0022B6  6A19               	clrf	(??_gpio_pin_direction_init+1)^0,c
  1359                           
  1360                           ; Switch on 2 bytes has been partitioned into a top level switch of size 1, and 1 sub-sw
      +                          itches
  1361                           ; Switch size 1, requested type "simple"
  1362                           ; Number of cases is 1, Range of values is 0 to 0
  1363                           ; switch strategies available:
  1364                           ; Name         Instructions Cycles
  1365                           ; simple_byte            4     3 (average)
  1366                           ;	Chosen strategy is simple_byte
  1367   0022B8  5019               	movf	(??_gpio_pin_direction_init+1)^0,w,c
  1368   0022BA  0A00               	xorlw	0	; case 0
  1369   0022BC  B4D8               	btfsc	status,2,c
  1370   0022BE  EF63  F011         	goto	l7171
  1371   0022C2  EFEA  F010         	goto	l5053
  1372   0022C6                     l7171:
  1373                           
  1374                           ; Switch size 1, requested type "simple"
  1375                           ; Number of cases is 2, Range of values is 0 to 1
  1376                           ; switch strategies available:
  1377                           ; Name         Instructions Cycles
  1378                           ; simple_byte            7     4 (average)
  1379                           ;	Chosen strategy is simple_byte
  1380   0022C6  5018               	movf	??_gpio_pin_direction_init^0,w,c
  1381   0022C8  0A00               	xorlw	0	; case 0
  1382   0022CA  B4D8               	btfsc	status,2,c
  1383   0022CC  EFEE  F010         	goto	l5055
  1384   0022D0  0A01               	xorlw	1	; case 1
  1385   0022D2  B4D8               	btfsc	status,2,c
  1386   0022D4  EF1F  F011         	goto	l5057
  1387   0022D8  EFEA  F010         	goto	l5053
  1388   0022DC                     l5063:
  1389                           
  1390                           ;MCAL_Layer/hal_gpio.c: 38:     return ret;
  1391   0022DC  501E               	movf	gpio_pin_direction_init@ret^0,w,c
  1392   0022DE  0012               	return		;funcret
  1393   0022E0                     __end_of_gpio_pin_direction_init:
  1394                           	callstack 0
  1395                           
  1396 ;; *************** function _EUSART_ASYNC_Init *****************
  1397 ;; Defined at:
  1398 ;;		line 38 in file "MCAL_Layer/usart/hal_usart.c"
  1399 ;; Parameters:    Size  Location     Type
  1400 ;;  _eusart         2   20[BANK0 ] PTR const struct .
  1401 ;;		 -> usart_obj(20), 
  1402 ;; Auto vars:     Size  Location     Type
  1403 ;;  ret             1    0        unsigned char 
  1404 ;; Return value:  Size  Location     Type
  1405 ;;                  1    wreg      unsigned char 
  1406 ;; Registers used:
  1407 ;;		wreg, fsr2l, fsr2h, status,2, status,0, cstack
  1408 ;; Tracked objects:
  1409 ;;		On entry : 0/0
  1410 ;;		On exit  : 0/0
  1411 ;;		Unchanged: 0/0
  1412 ;; Data sizes:     COMRAM   BANK0   BANK1   BANK2   BANK3   BANK4   BANK5   BANK6   BANK7   BANK8   BANK9  BANK10  BANK1
      +1  BANK12  BANK13  BANK14  BANK15
  1413 ;;      Params:         0       2       0       0       0       0       0       0       0       0       0       0       
      +0       0       0       0       0
  1414 ;;      Locals:         0       0       0       0       0       0       0       0       0       0       0       0       
      +0       0       0       0       0
  1415 ;;      Temps:          0       0       0       0       0       0       0       0       0       0       0       0       
      +0       0       0       0       0
  1416 ;;      Totals:         0       2       0       0       0       0       0       0       0       0       0       0       
      +0       0       0       0       0
  1417 ;;Total ram usage:        2 bytes
  1418 ;; Hardware stack levels used: 1
  1419 ;; Hardware stack levels required when called: 7
  1420 ;; This function calls:
  1421 ;;		_EUSART_BUADRATE_Calculation
  1422 ;;		_eusart_async_rx_init
  1423 ;;		_eusart_async_tx_init
  1424 ;; This function is called by:
  1425 ;;		_Application_initialize
  1426 ;; This function uses a non-reentrant model
  1427 ;;
  1428                           
  1429                           	psect	text5
  1430   002A7C                     __ptext5:
  1431                           	callstack 0
  1432   002A7C                     _EUSART_ASYNC_Init:
  1433                           	callstack 22
  1434   002A7C                     
  1435                           ;MCAL_Layer/usart/hal_usart.c: 40:     if(_eusart == ((void*)0)) ret = (STD_ReturnType)0
      +                          x00;
  1436   002A7C  0100               	movlb	0	; () banked
  1437   002A7E  51E2               	movf	EUSART_ASYNC_Init@_eusart& (0+255),w,b
  1438   002A80  11E3               	iorwf	(EUSART_ASYNC_Init@_eusart+1)& (0+255),w,b
  1439   002A82  A4D8               	btfss	status,2,c
  1440   002A84  EF46  F015         	goto	u6831
  1441   002A88  EF48  F015         	goto	u6830
  1442   002A8C                     u6831:
  1443   002A8C  EF4A  F015         	goto	l653
  1444   002A90                     u6830:
  1445   002A90                     
  1446                           ; BSR set to: 0
  1447   002A90  EF60  F015         	goto	l655
  1448   002A94                     l653:
  1449                           
  1450                           ; BSR set to: 0
  1451                           ;MCAL_Layer/usart/hal_usart.c: 43:       RCSTAbits.SPEN = 0;
  1452   002A94  9EAB               	bcf	171,7,c	;volatile
  1453                           
  1454                           ;MCAL_Layer/usart/hal_usart.c: 44:       TRISCbits.RC7 = 1;
  1455   002A96  8E94               	bsf	148,7,c	;volatile
  1456                           
  1457                           ;MCAL_Layer/usart/hal_usart.c: 45:       TRISCbits.RC6 = 1;
  1458   002A98  8C94               	bsf	148,6,c	;volatile
  1459   002A9A                     
  1460                           ; BSR set to: 0
  1461                           ;MCAL_Layer/usart/hal_usart.c: 47:       EUSART_BUADRATE_Calculation(_eusart);
  1462   002A9A  C0E2  F0D6         	movff	EUSART_ASYNC_Init@_eusart,EUSART_BUADRATE_Calculation@_eusart
  1463   002A9E  C0E3  F0D7         	movff	EUSART_ASYNC_Init@_eusart+1,EUSART_BUADRATE_Calculation@_eusart+1
  1464   002AA2  EC0B  F008         	call	_EUSART_BUADRATE_Calculation	;wreg free
  1465                           
  1466                           ;MCAL_Layer/usart/hal_usart.c: 48:       eusart_async_tx_init(_eusart);
  1467   002AA6  C0E2  F016         	movff	EUSART_ASYNC_Init@_eusart,eusart_async_tx_init@_eusart
  1468   002AAA  C0E3  F017         	movff	EUSART_ASYNC_Init@_eusart+1,eusart_async_tx_init@_eusart+1
  1469   002AAE  EC29  F014         	call	_eusart_async_tx_init	;wreg free
  1470                           
  1471                           ;MCAL_Layer/usart/hal_usart.c: 49:       eusart_async_rx_init(_eusart);
  1472   002AB2  C0E2  F016         	movff	EUSART_ASYNC_Init@_eusart,eusart_async_rx_init@_eusart
  1473   002AB6  C0E3  F017         	movff	EUSART_ASYNC_Init@_eusart+1,eusart_async_rx_init@_eusart+1
  1474   002ABA  EC90  F013         	call	_eusart_async_rx_init	;wreg free
  1475   002ABE                     
  1476                           ;MCAL_Layer/usart/hal_usart.c: 51:       RCSTAbits.SPEN = 1;
  1477   002ABE  8EAB               	bsf	171,7,c	;volatile
  1478   002AC0                     l655:
  1479   002AC0  0012               	return		;funcret
  1480   002AC2                     __end_of_EUSART_ASYNC_Init:
  1481                           	callstack 0
  1482                           
  1483 ;; *************** function _eusart_async_tx_init *****************
  1484 ;; Defined at:
  1485 ;;		line 166 in file "MCAL_Layer/usart/hal_usart.c"
  1486 ;; Parameters:    Size  Location     Type
  1487 ;;  _eusart         2   21[COMRAM] PTR const struct .
  1488 ;;		 -> usart_obj(20), 
  1489 ;; Auto vars:     Size  Location     Type
  1490 ;;		None
  1491 ;; Return value:  Size  Location     Type
  1492 ;;                  1    wreg      void 
  1493 ;; Registers used:
  1494 ;;		wreg, fsr2l, fsr2h, status,2, status,0
  1495 ;; Tracked objects:
  1496 ;;		On entry : 0/0
  1497 ;;		On exit  : 0/0
  1498 ;;		Unchanged: 0/0
  1499 ;; Data sizes:     COMRAM   BANK0   BANK1   BANK2   BANK3   BANK4   BANK5   BANK6   BANK7   BANK8   BANK9  BANK10  BANK1
      +1  BANK12  BANK13  BANK14  BANK15
  1500 ;;      Params:         2       0       0       0       0       0       0       0       0       0       0       0       
      +0       0       0       0       0
  1501 ;;      Locals:         0       0       0       0       0       0       0       0       0       0       0       0       
      +0       0       0       0       0
  1502 ;;      Temps:          0       0       0       0       0       0       0       0       0       0       0       0       
      +0       0       0       0       0
  1503 ;;      Totals:         2       0       0       0       0       0       0       0       0       0       0       0       
      +0       0       0       0       0
  1504 ;;Total ram usage:        2 bytes
  1505 ;; Hardware stack levels used: 1
  1506 ;; Hardware stack levels required when called: 5
  1507 ;; This function calls:
  1508 ;;		Nothing
  1509 ;; This function is called by:
  1510 ;;		_EUSART_ASYNC_Init
  1511 ;; This function uses a non-reentrant model
  1512 ;;
  1513                           
  1514                           	psect	text6
  1515   002852                     __ptext6:
  1516                           	callstack 0
  1517   002852                     _eusart_async_tx_init:
  1518                           	callstack 23
  1519   002852                     
  1520                           ;MCAL_Layer/usart/hal_usart.c: 167:     if(_eusart->usart_tx_cfg.usart_tx_enable == 1){
  1521   002852  EE20 F005          	lfsr	2,5
  1522   002856  5016               	movf	eusart_async_tx_init@_eusart^0,w,c
  1523   002858  26D9               	addwf	fsr2l,f,c
  1524   00285A  5017               	movf	(eusart_async_tx_init@_eusart+1)^0,w,c
  1525   00285C  22DA               	addwfc	fsr2h,f,c
  1526   00285E  AADF               	btfss	indf2,5,c
  1527   002860  EF34  F014         	goto	u4441
  1528   002864  EF36  F014         	goto	u4440
  1529   002868                     u4441:
  1530   002868  EF66  F014         	goto	l712
  1531   00286C                     u4440:
  1532   00286C                     
  1533                           ;MCAL_Layer/usart/hal_usart.c: 168:         TXSTAbits.TXEN = 1;
  1534   00286C  8AAC               	bsf	172,5,c	;volatile
  1535   00286E                     
  1536                           ;MCAL_Layer/usart/hal_usart.c: 169:         EUSART_TX_InterruptHandler = _eusart->EUSART
      +                          _TX_DefaultInterruptHandler;
  1537   00286E  EE20 F00C          	lfsr	2,12
  1538   002872  5016               	movf	eusart_async_tx_init@_eusart^0,w,c
  1539   002874  26D9               	addwf	fsr2l,f,c
  1540   002876  5017               	movf	(eusart_async_tx_init@_eusart+1)^0,w,c
  1541   002878  22DA               	addwfc	fsr2h,f,c
  1542   00287A  CFDE F04D          	movff	postinc2,_EUSART_TX_InterruptHandler
  1543   00287E  CFDD F04E          	movff	postdec2,_EUSART_TX_InterruptHandler+1
  1544                           
  1545                           ;MCAL_Layer/usart/hal_usart.c: 171:         if(_eusart->usart_tx_cfg.usart_tx_interrupt_
      +                          enable == 1){
  1546   002882  EE20 F005          	lfsr	2,5
  1547   002886  5016               	movf	eusart_async_tx_init@_eusart^0,w,c
  1548   002888  26D9               	addwf	fsr2l,f,c
  1549   00288A  5017               	movf	(eusart_async_tx_init@_eusart+1)^0,w,c
  1550   00288C  22DA               	addwfc	fsr2h,f,c
  1551   00288E  ACDF               	btfss	indf2,6,c
  1552   002890  EF4C  F014         	goto	u4451
  1553   002894  EF4E  F014         	goto	u4450
  1554   002898                     u4451:
  1555   002898  EF54  F014         	goto	l707
  1556   00289C                     u4450:
  1557   00289C                     
  1558                           ;MCAL_Layer/usart/hal_usart.c: 172:             PIE1bits.TXIE = 1;
  1559   00289C  889D               	bsf	157,4,c	;volatile
  1560                           
  1561                           ;MCAL_Layer/usart/hal_usart.c: 176:             (PIE1bits.TXIE = 1);
  1562   00289E  889D               	bsf	157,4,c	;volatile
  1563                           
  1564                           ;MCAL_Layer/usart/hal_usart.c: 190:             (INTCONbits.GIE = 1);
  1565   0028A0  8EF2               	bsf	242,7,c	;volatile
  1566                           
  1567                           ;MCAL_Layer/usart/hal_usart.c: 192:             (INTCONbits.PEIE = 1);
  1568   0028A2  8CF2               	bsf	242,6,c	;volatile
  1569                           
  1570                           ;MCAL_Layer/usart/hal_usart.c: 197:         }else{
  1571   0028A4  EF55  F014         	goto	l5173
  1572   0028A8                     l707:
  1573                           
  1574                           ;MCAL_Layer/usart/hal_usart.c: 198:             PIE1bits.TXIE = 0;
  1575   0028A8  989D               	bcf	157,4,c	;volatile
  1576   0028AA                     l5173:
  1577                           
  1578                           ;MCAL_Layer/usart/hal_usart.c: 201:         if(_eusart->usart_tx_cfg.usart_tx_9bit_enabl
      +                          e == 1){
  1579   0028AA  EE20 F005          	lfsr	2,5
  1580   0028AE  5016               	movf	eusart_async_tx_init@_eusart^0,w,c
  1581   0028B0  26D9               	addwf	fsr2l,f,c
  1582   0028B2  5017               	movf	(eusart_async_tx_init@_eusart+1)^0,w,c
  1583   0028B4  22DA               	addwfc	fsr2h,f,c
  1584   0028B6  AEDF               	btfss	indf2,7,c
  1585   0028B8  EF60  F014         	goto	u4461
  1586   0028BC  EF62  F014         	goto	u4460
  1587   0028C0                     u4461:
  1588   0028C0  EF65  F014         	goto	l709
  1589   0028C4                     u4460:
  1590   0028C4                     
  1591                           ;MCAL_Layer/usart/hal_usart.c: 202:             TXSTAbits.TX9 = 1;
  1592   0028C4  8CAC               	bsf	172,6,c	;volatile
  1593                           
  1594                           ;MCAL_Layer/usart/hal_usart.c: 203:         }else{
  1595   0028C6  EF66  F014         	goto	l712
  1596   0028CA                     l709:
  1597                           
  1598                           ;MCAL_Layer/usart/hal_usart.c: 204:             TXSTAbits.TX9 = 0;
  1599   0028CA  9CAC               	bcf	172,6,c	;volatile
  1600   0028CC                     l712:
  1601   0028CC  0012               	return		;funcret
  1602   0028CE                     __end_of_eusart_async_tx_init:
  1603                           	callstack 0
  1604                           
  1605 ;; *************** function _eusart_async_rx_init *****************
  1606 ;; Defined at:
  1607 ;;		line 214 in file "MCAL_Layer/usart/hal_usart.c"
  1608 ;; Parameters:    Size  Location     Type
  1609 ;;  _eusart         2   21[COMRAM] PTR const struct .
  1610 ;;		 -> usart_obj(20), 
  1611 ;; Auto vars:     Size  Location     Type
  1612 ;;		None
  1613 ;; Return value:  Size  Location     Type
  1614 ;;                  1    wreg      void 
  1615 ;; Registers used:
  1616 ;;		wreg, fsr2l, fsr2h, status,2, status,0
  1617 ;; Tracked objects:
  1618 ;;		On entry : 0/0
  1619 ;;		On exit  : 0/0
  1620 ;;		Unchanged: 0/0
  1621 ;; Data sizes:     COMRAM   BANK0   BANK1   BANK2   BANK3   BANK4   BANK5   BANK6   BANK7   BANK8   BANK9  BANK10  BANK1
      +1  BANK12  BANK13  BANK14  BANK15
  1622 ;;      Params:         2       0       0       0       0       0       0       0       0       0       0       0       
      +0       0       0       0       0
  1623 ;;      Locals:         0       0       0       0       0       0       0       0       0       0       0       0       
      +0       0       0       0       0
  1624 ;;      Temps:          0       0       0       0       0       0       0       0       0       0       0       0       
      +0       0       0       0       0
  1625 ;;      Totals:         2       0       0       0       0       0       0       0       0       0       0       0       
      +0       0       0       0       0
  1626 ;;Total ram usage:        2 bytes
  1627 ;; Hardware stack levels used: 1
  1628 ;; Hardware stack levels required when called: 5
  1629 ;; This function calls:
  1630 ;;		Nothing
  1631 ;; This function is called by:
  1632 ;;		_EUSART_ASYNC_Init
  1633 ;; This function uses a non-reentrant model
  1634 ;;
  1635                           
  1636                           	psect	text7
  1637   002720                     __ptext7:
  1638                           	callstack 0
  1639   002720                     _eusart_async_rx_init:
  1640                           	callstack 23
  1641   002720                     
  1642                           ;MCAL_Layer/usart/hal_usart.c: 216:     if(_eusart->usart_rx_cfg.usart_rx_enable == 1){
  1643   002720  EE20 F007          	lfsr	2,7
  1644   002724  5016               	movf	eusart_async_rx_init@_eusart^0,w,c
  1645   002726  26D9               	addwf	fsr2l,f,c
  1646   002728  5017               	movf	(eusart_async_rx_init@_eusart+1)^0,w,c
  1647   00272A  22DA               	addwfc	fsr2h,f,c
  1648   00272C  AADF               	btfss	indf2,5,c
  1649   00272E  EF9B  F013         	goto	u4471
  1650   002732  EF9D  F013         	goto	u4470
  1651   002736                     u4471:
  1652   002736  EFE1  F013         	goto	l721
  1653   00273A                     u4470:
  1654   00273A                     
  1655                           ;MCAL_Layer/usart/hal_usart.c: 218:         RCSTAbits.CREN = 1;
  1656   00273A  88AB               	bsf	171,4,c	;volatile
  1657   00273C                     
  1658                           ;MCAL_Layer/usart/hal_usart.c: 220:         EUSART_RX_InterruptHandler = _eusart->EUSART
      +                          _RX_DefaultInterruptHandler;
  1659   00273C  EE20 F00E          	lfsr	2,14
  1660   002740  5016               	movf	eusart_async_rx_init@_eusart^0,w,c
  1661   002742  26D9               	addwf	fsr2l,f,c
  1662   002744  5017               	movf	(eusart_async_rx_init@_eusart+1)^0,w,c
  1663   002746  22DA               	addwfc	fsr2h,f,c
  1664   002748  CFDE F04B          	movff	postinc2,_EUSART_RX_InterruptHandler
  1665   00274C  CFDD F04C          	movff	postdec2,_EUSART_RX_InterruptHandler+1
  1666                           
  1667                           ;MCAL_Layer/usart/hal_usart.c: 221:         EUSART_FramingErrorHandler = _eusart->EUSART
      +                          _FramingErrorHandler;
  1668   002750  EE20 F010          	lfsr	2,16
  1669   002754  5016               	movf	eusart_async_rx_init@_eusart^0,w,c
  1670   002756  26D9               	addwf	fsr2l,f,c
  1671   002758  5017               	movf	(eusart_async_rx_init@_eusart+1)^0,w,c
  1672   00275A  22DA               	addwfc	fsr2h,f,c
  1673   00275C  CFDE F0CA          	movff	postinc2,_EUSART_FramingErrorHandler
  1674   002760  CFDD F0CB          	movff	postdec2,_EUSART_FramingErrorHandler+1
  1675                           
  1676                           ;MCAL_Layer/usart/hal_usart.c: 222:         EUSART_OverrunErrorHandler = _eusart->EUSART
      +                          _OverrunErrorHandler;
  1677   002764  EE20 F012          	lfsr	2,18
  1678   002768  5016               	movf	eusart_async_rx_init@_eusart^0,w,c
  1679   00276A  26D9               	addwf	fsr2l,f,c
  1680   00276C  5017               	movf	(eusart_async_rx_init@_eusart+1)^0,w,c
  1681   00276E  22DA               	addwfc	fsr2h,f,c
  1682   002770  CFDE F0C8          	movff	postinc2,_EUSART_OverrunErrorHandler
  1683   002774  CFDD F0C9          	movff	postdec2,_EUSART_OverrunErrorHandler+1
  1684                           
  1685                           ;MCAL_Layer/usart/hal_usart.c: 224:         if(_eusart->usart_rx_cfg.usart_rx_interrupt_
      +                          enable == 1){
  1686   002778  EE20 F007          	lfsr	2,7
  1687   00277C  5016               	movf	eusart_async_rx_init@_eusart^0,w,c
  1688   00277E  26D9               	addwf	fsr2l,f,c
  1689   002780  5017               	movf	(eusart_async_rx_init@_eusart+1)^0,w,c
  1690   002782  22DA               	addwfc	fsr2h,f,c
  1691   002784  ACDF               	btfss	indf2,6,c
  1692   002786  EFC7  F013         	goto	u4481
  1693   00278A  EFC9  F013         	goto	u4480
  1694   00278E                     u4481:
  1695   00278E  EFCF  F013         	goto	l716
  1696   002792                     u4480:
  1697   002792                     
  1698                           ;MCAL_Layer/usart/hal_usart.c: 225:             PIE1bits.RCIE = 1;
  1699   002792  8A9D               	bsf	157,5,c	;volatile
  1700                           
  1701                           ;MCAL_Layer/usart/hal_usart.c: 228:             (PIE1bits.RCIE = 1);
  1702   002794  8A9D               	bsf	157,5,c	;volatile
  1703                           
  1704                           ;MCAL_Layer/usart/hal_usart.c: 242:             (INTCONbits.GIE = 1);
  1705   002796  8EF2               	bsf	242,7,c	;volatile
  1706                           
  1707                           ;MCAL_Layer/usart/hal_usart.c: 244:             (INTCONbits.PEIE = 1);
  1708   002798  8CF2               	bsf	242,6,c	;volatile
  1709                           
  1710                           ;MCAL_Layer/usart/hal_usart.c: 250:         }else{
  1711   00279A  EFD0  F013         	goto	l5185
  1712   00279E                     l716:
  1713                           
  1714                           ;MCAL_Layer/usart/hal_usart.c: 251:             PIE1bits.RCIE = 0;
  1715   00279E  9A9D               	bcf	157,5,c	;volatile
  1716   0027A0                     l5185:
  1717                           
  1718                           ;MCAL_Layer/usart/hal_usart.c: 255:         if(_eusart->usart_rx_cfg.usart_rx_9bit_enabl
      +                          e == 1){
  1719   0027A0  EE20 F007          	lfsr	2,7
  1720   0027A4  5016               	movf	eusart_async_rx_init@_eusart^0,w,c
  1721   0027A6  26D9               	addwf	fsr2l,f,c
  1722   0027A8  5017               	movf	(eusart_async_rx_init@_eusart+1)^0,w,c
  1723   0027AA  22DA               	addwfc	fsr2h,f,c
  1724   0027AC  AEDF               	btfss	indf2,7,c
  1725   0027AE  EFDB  F013         	goto	u4491
  1726   0027B2  EFDD  F013         	goto	u4490
  1727   0027B6                     u4491:
  1728   0027B6  EFE0  F013         	goto	l718
  1729   0027BA                     u4490:
  1730   0027BA                     
  1731                           ;MCAL_Layer/usart/hal_usart.c: 256:             RCSTAbits.RC9 = 1;
  1732   0027BA  8CAB               	bsf	171,6,c	;volatile
  1733                           
  1734                           ;MCAL_Layer/usart/hal_usart.c: 257:         }else{
  1735   0027BC  EFE1  F013         	goto	l721
  1736   0027C0                     l718:
  1737                           
  1738                           ;MCAL_Layer/usart/hal_usart.c: 258:             RCSTAbits.RC9 = 0;
  1739   0027C0  9CAB               	bcf	171,6,c	;volatile
  1740   0027C2                     l721:
  1741   0027C2  0012               	return		;funcret
  1742   0027C4                     __end_of_eusart_async_rx_init:
  1743                           	callstack 0
  1744                           
  1745 ;; *************** function _EUSART_BUADRATE_Calculation *****************
  1746 ;; Defined at:
  1747 ;;		line 116 in file "MCAL_Layer/usart/hal_usart.c"
  1748 ;; Parameters:    Size  Location     Type
  1749 ;;  _eusart         2    8[BANK0 ] PTR const struct .
  1750 ;;		 -> usart_obj(20), 
  1751 ;; Auto vars:     Size  Location     Type
  1752 ;;  baud_rate_Te    4   12[BANK0 ] float 
  1753 ;; Return value:  Size  Location     Type
  1754 ;;                  1    wreg      void 
  1755 ;; Registers used:
  1756 ;;		wreg, fsr2l, fsr2h, status,2, status,0, cstack
  1757 ;; Tracked objects:
  1758 ;;		On entry : 0/0
  1759 ;;		On exit  : 0/0
  1760 ;;		Unchanged: 0/0
  1761 ;; Data sizes:     COMRAM   BANK0   BANK1   BANK2   BANK3   BANK4   BANK5   BANK6   BANK7   BANK8   BANK9  BANK10  BANK1
      +1  BANK12  BANK13  BANK14  BANK15
  1762 ;;      Params:         0       2       0       0       0       0       0       0       0       0       0       0       
      +0       0       0       0       0
  1763 ;;      Locals:         0       8       0       0       0       0       0       0       0       0       0       0       
      +0       0       0       0       0
  1764 ;;      Temps:          0       2       0       0       0       0       0       0       0       0       0       0       
      +0       0       0       0       0
  1765 ;;      Totals:         0      12       0       0       0       0       0       0       0       0       0       0       
      +0       0       0       0       0
  1766 ;;Total ram usage:       12 bytes
  1767 ;; Hardware stack levels used: 1
  1768 ;; Hardware stack levels required when called: 6
  1769 ;; This function calls:
  1770 ;;		___fladd
  1771 ;;		___fldiv
  1772 ;;		___fltol
  1773 ;;		___xxtofl
  1774 ;; This function is called by:
  1775 ;;		_EUSART_ASYNC_Init
  1776 ;; This function uses a non-reentrant model
  1777 ;;
  1778                           
  1779                           	psect	text8
  1780   001016                     __ptext8:
  1781                           	callstack 0
  1782   001016                     _EUSART_BUADRATE_Calculation:
  1783                           	callstack 22
  1784   001016                     
  1785                           ;MCAL_Layer/usart/hal_usart.c: 117:     float baud_rate_Temp = 0;
  1786   001016  0E00               	movlw	0
  1787   001018  0100               	movlb	0	; () banked
  1788   00101A  6FDA               	movwf	EUSART_BUADRATE_Calculation@baud_rate_Temp& (0+255),b
  1789   00101C  0E00               	movlw	0
  1790   00101E  6FDB               	movwf	(EUSART_BUADRATE_Calculation@baud_rate_Temp+1)& (0+255),b
  1791   001020  0E00               	movlw	0
  1792   001022  6FDC               	movwf	(EUSART_BUADRATE_Calculation@baud_rate_Temp+2)& (0+255),b
  1793   001024  0E00               	movlw	0
  1794   001026  6FDD               	movwf	(EUSART_BUADRATE_Calculation@baud_rate_Temp+3)& (0+255),b
  1795                           
  1796                           ;MCAL_Layer/usart/hal_usart.c: 118:     switch(_eusart->buadrate_gen_cfg){
  1797   001028  EF35  F00A         	goto	l7029
  1798   00102C                     l695:
  1799                           
  1800                           ; BSR set to: 0
  1801                           ;MCAL_Layer/usart/hal_usart.c: 120:             TXSTAbits.SYNC = 0;
  1802   00102C  98AC               	bcf	172,4,c	;volatile
  1803                           
  1804                           ;MCAL_Layer/usart/hal_usart.c: 121:             TXSTAbits.BRGH = 0;
  1805   00102E  94AC               	bcf	172,2,c	;volatile
  1806                           
  1807                           ;MCAL_Layer/usart/hal_usart.c: 122:             BAUDCONbits.BRG16 = 0;
  1808   001030  96B8               	bcf	184,3,c	;volatile
  1809   001032                     
  1810                           ; BSR set to: 0
  1811                           ;MCAL_Layer/usart/hal_usart.c: 123:             baud_rate_Temp = ((8000000UL / (float)(_
      +                          eusart->buadrate)) / 64) - 1;
  1812   001032  C0D6  FFD9         	movff	EUSART_BUADRATE_Calculation@_eusart,fsr2l
  1813   001036  C0D7  FFDA         	movff	EUSART_BUADRATE_Calculation@_eusart+1,fsr2h
  1814   00103A  CFDE F016          	movff	postinc2,___xxtofl@val
  1815   00103E  CFDE F017          	movff	postinc2,___xxtofl@val+1
  1816   001042  CFDE F018          	movff	postinc2,___xxtofl@val+2
  1817   001046  CFDE F019          	movff	postinc2,___xxtofl@val+3
  1818   00104A  0E00               	movlw	0
  1819   00104C  ECE5  F00F         	call	___xxtofl
  1820   001050  C016  F028         	movff	?___xxtofl,___fldiv@a
  1821   001054  C017  F029         	movff	?___xxtofl+1,___fldiv@a+1
  1822   001058  C018  F02A         	movff	?___xxtofl+2,___fldiv@a+2
  1823   00105C  C019  F02B         	movff	?___xxtofl+3,___fldiv@a+3
  1824   001060  0E00               	movlw	0
  1825   001062  6E24               	movwf	___fldiv@b^0,c
  1826   001064  0E24               	movlw	36
  1827   001066  6E25               	movwf	(___fldiv@b+1)^0,c
  1828   001068  0EF4               	movlw	244
  1829   00106A  6E26               	movwf	(___fldiv@b+2)^0,c
  1830   00106C  0E4A               	movlw	74
  1831   00106E  6E27               	movwf	(___fldiv@b+3)^0,c
  1832   001070  ECE1  F00C         	call	___fldiv	;wreg free
  1833   001074  C024  F0DE         	movff	?___fldiv,_EUSART_BUADRATE_Calculation$4513
  1834   001078  C025  F0DF         	movff	?___fldiv+1,_EUSART_BUADRATE_Calculation$4513+1
  1835   00107C  C026  F0E0         	movff	?___fldiv+2,_EUSART_BUADRATE_Calculation$4513+2
  1836   001080  C027  F0E1         	movff	?___fldiv+3,_EUSART_BUADRATE_Calculation$4513+3
  1837   001084                     
  1838                           ;MCAL_Layer/usart/hal_usart.c: 123:             baud_rate_Temp = ((8000000UL / (float)(_
      +                          eusart->buadrate)) / 64) - 1;
  1839   001084  0E00               	movlw	0
  1840   001086  6E28               	movwf	___fldiv@a^0,c
  1841   001088  0E00               	movlw	0
  1842   00108A  6E29               	movwf	(___fldiv@a+1)^0,c
  1843   00108C  0E80               	movlw	128
  1844   00108E  6E2A               	movwf	(___fldiv@a+2)^0,c
  1845   001090  0E42               	movlw	66
  1846   001092  6E2B               	movwf	(___fldiv@a+3)^0,c
  1847   001094  C0DE  F024         	movff	_EUSART_BUADRATE_Calculation$4513,___fldiv@b
  1848   001098  C0DF  F025         	movff	_EUSART_BUADRATE_Calculation$4513+1,___fldiv@b+1
  1849   00109C  C0E0  F026         	movff	_EUSART_BUADRATE_Calculation$4513+2,___fldiv@b+2
  1850   0010A0  C0E1  F027         	movff	_EUSART_BUADRATE_Calculation$4513+3,___fldiv@b+3
  1851   0010A4  ECE1  F00C         	call	___fldiv	;wreg free
  1852   0010A8  C024  F03D         	movff	?___fldiv,___fladd@b
  1853   0010AC  C025  F03E         	movff	?___fldiv+1,___fladd@b+1
  1854   0010B0  C026  F03F         	movff	?___fldiv+2,___fladd@b+2
  1855   0010B4  C027  F040         	movff	?___fldiv+3,___fladd@b+3
  1856   0010B8  0E00               	movlw	0
  1857   0010BA  6E41               	movwf	___fladd@a^0,c
  1858   0010BC  0E00               	movlw	0
  1859   0010BE  6E42               	movwf	(___fladd@a+1)^0,c
  1860   0010C0  0E80               	movlw	128
  1861   0010C2  6E43               	movwf	(___fladd@a+2)^0,c
  1862   0010C4  0EBF               	movlw	191
  1863   0010C6  6E44               	movwf	(___fladd@a+3)^0,c
  1864   0010C8  EC80  F00A         	call	___fladd	;wreg free
  1865   0010CC  C03D  F0DA         	movff	?___fladd,EUSART_BUADRATE_Calculation@baud_rate_Temp
  1866   0010D0  C03E  F0DB         	movff	?___fladd+1,EUSART_BUADRATE_Calculation@baud_rate_Temp+1
  1867   0010D4  C03F  F0DC         	movff	?___fladd+2,EUSART_BUADRATE_Calculation@baud_rate_Temp+2
  1868   0010D8  C040  F0DD         	movff	?___fladd+3,EUSART_BUADRATE_Calculation@baud_rate_Temp+3
  1869                           
  1870                           ;MCAL_Layer/usart/hal_usart.c: 124:             break;
  1871   0010DC  EF60  F00A         	goto	l7031
  1872   0010E0                     l697:
  1873                           
  1874                           ; BSR set to: 0
  1875                           ;MCAL_Layer/usart/hal_usart.c: 126:             TXSTAbits.SYNC = 0;
  1876   0010E0  98AC               	bcf	172,4,c	;volatile
  1877                           
  1878                           ;MCAL_Layer/usart/hal_usart.c: 127:             TXSTAbits.BRGH = 1;
  1879   0010E2  84AC               	bsf	172,2,c	;volatile
  1880                           
  1881                           ;MCAL_Layer/usart/hal_usart.c: 128:             BAUDCONbits.BRG16 = 0;
  1882   0010E4  96B8               	bcf	184,3,c	;volatile
  1883   0010E6                     
  1884                           ; BSR set to: 0
  1885                           ;MCAL_Layer/usart/hal_usart.c: 129:             baud_rate_Temp = ((8000000UL / (float)(_
      +                          eusart->buadrate)) / 16) - 1;
  1886   0010E6  C0D6  FFD9         	movff	EUSART_BUADRATE_Calculation@_eusart,fsr2l
  1887   0010EA  C0D7  FFDA         	movff	EUSART_BUADRATE_Calculation@_eusart+1,fsr2h
  1888   0010EE  CFDE F016          	movff	postinc2,___xxtofl@val
  1889   0010F2  CFDE F017          	movff	postinc2,___xxtofl@val+1
  1890   0010F6  CFDE F018          	movff	postinc2,___xxtofl@val+2
  1891   0010FA  CFDE F019          	movff	postinc2,___xxtofl@val+3
  1892   0010FE  0E00               	movlw	0
  1893   001100  ECE5  F00F         	call	___xxtofl
  1894   001104  C016  F028         	movff	?___xxtofl,___fldiv@a
  1895   001108  C017  F029         	movff	?___xxtofl+1,___fldiv@a+1
  1896   00110C  C018  F02A         	movff	?___xxtofl+2,___fldiv@a+2
  1897   001110  C019  F02B         	movff	?___xxtofl+3,___fldiv@a+3
  1898   001114  0E00               	movlw	0
  1899   001116  6E24               	movwf	___fldiv@b^0,c
  1900   001118  0E24               	movlw	36
  1901   00111A  6E25               	movwf	(___fldiv@b+1)^0,c
  1902   00111C  0EF4               	movlw	244
  1903   00111E  6E26               	movwf	(___fldiv@b+2)^0,c
  1904   001120  0E4A               	movlw	74
  1905   001122  6E27               	movwf	(___fldiv@b+3)^0,c
  1906   001124  ECE1  F00C         	call	___fldiv	;wreg free
  1907   001128  C024  F0DE         	movff	?___fldiv,_EUSART_BUADRATE_Calculation$4513
  1908   00112C  C025  F0DF         	movff	?___fldiv+1,_EUSART_BUADRATE_Calculation$4513+1
  1909   001130  C026  F0E0         	movff	?___fldiv+2,_EUSART_BUADRATE_Calculation$4513+2
  1910   001134  C027  F0E1         	movff	?___fldiv+3,_EUSART_BUADRATE_Calculation$4513+3
  1911   001138                     
  1912                           ;MCAL_Layer/usart/hal_usart.c: 129:             baud_rate_Temp = ((8000000UL / (float)(_
      +                          eusart->buadrate)) / 16) - 1;
  1913   001138  0E00               	movlw	0
  1914   00113A  6E28               	movwf	___fldiv@a^0,c
  1915   00113C  0E00               	movlw	0
  1916   00113E  6E29               	movwf	(___fldiv@a+1)^0,c
  1917   001140  0E80               	movlw	128
  1918   001142  6E2A               	movwf	(___fldiv@a+2)^0,c
  1919   001144  0E41               	movlw	65
  1920   001146  6E2B               	movwf	(___fldiv@a+3)^0,c
  1921   001148  C0DE  F024         	movff	_EUSART_BUADRATE_Calculation$4513,___fldiv@b
  1922   00114C  C0DF  F025         	movff	_EUSART_BUADRATE_Calculation$4513+1,___fldiv@b+1
  1923   001150  C0E0  F026         	movff	_EUSART_BUADRATE_Calculation$4513+2,___fldiv@b+2
  1924   001154  C0E1  F027         	movff	_EUSART_BUADRATE_Calculation$4513+3,___fldiv@b+3
  1925   001158  ECE1  F00C         	call	___fldiv	;wreg free
  1926   00115C  C024  F03D         	movff	?___fldiv,___fladd@b
  1927   001160  C025  F03E         	movff	?___fldiv+1,___fladd@b+1
  1928   001164  C026  F03F         	movff	?___fldiv+2,___fladd@b+2
  1929   001168  C027  F040         	movff	?___fldiv+3,___fladd@b+3
  1930   00116C  0E00               	movlw	0
  1931   00116E  6E41               	movwf	___fladd@a^0,c
  1932   001170  0E00               	movlw	0
  1933   001172  6E42               	movwf	(___fladd@a+1)^0,c
  1934   001174  0E80               	movlw	128
  1935   001176  6E43               	movwf	(___fladd@a+2)^0,c
  1936   001178  0EBF               	movlw	191
  1937   00117A  6E44               	movwf	(___fladd@a+3)^0,c
  1938   00117C  EC80  F00A         	call	___fladd	;wreg free
  1939   001180  C03D  F0DA         	movff	?___fladd,EUSART_BUADRATE_Calculation@baud_rate_Temp
  1940   001184  C03E  F0DB         	movff	?___fladd+1,EUSART_BUADRATE_Calculation@baud_rate_Temp+1
  1941   001188  C03F  F0DC         	movff	?___fladd+2,EUSART_BUADRATE_Calculation@baud_rate_Temp+2
  1942   00118C  C040  F0DD         	movff	?___fladd+3,EUSART_BUADRATE_Calculation@baud_rate_Temp+3
  1943                           
  1944                           ;MCAL_Layer/usart/hal_usart.c: 130:             break;
  1945   001190  EF60  F00A         	goto	l7031
  1946   001194                     l698:
  1947                           
  1948                           ; BSR set to: 0
  1949                           ;MCAL_Layer/usart/hal_usart.c: 132:             TXSTAbits.SYNC = 0;
  1950   001194  98AC               	bcf	172,4,c	;volatile
  1951                           
  1952                           ;MCAL_Layer/usart/hal_usart.c: 133:             TXSTAbits.BRGH = 0;
  1953   001196  94AC               	bcf	172,2,c	;volatile
  1954                           
  1955                           ;MCAL_Layer/usart/hal_usart.c: 134:             BAUDCONbits.BRG16 = 1;
  1956   001198  86B8               	bsf	184,3,c	;volatile
  1957   00119A                     
  1958                           ; BSR set to: 0
  1959                           ;MCAL_Layer/usart/hal_usart.c: 135:             baud_rate_Temp = ((8000000UL / (float)(_
      +                          eusart->buadrate)) / 16) - 1;
  1960   00119A  C0D6  FFD9         	movff	EUSART_BUADRATE_Calculation@_eusart,fsr2l
  1961   00119E  C0D7  FFDA         	movff	EUSART_BUADRATE_Calculation@_eusart+1,fsr2h
  1962   0011A2  CFDE F016          	movff	postinc2,___xxtofl@val
  1963   0011A6  CFDE F017          	movff	postinc2,___xxtofl@val+1
  1964   0011AA  CFDE F018          	movff	postinc2,___xxtofl@val+2
  1965   0011AE  CFDE F019          	movff	postinc2,___xxtofl@val+3
  1966   0011B2  0E00               	movlw	0
  1967   0011B4  ECE5  F00F         	call	___xxtofl
  1968   0011B8  C016  F028         	movff	?___xxtofl,___fldiv@a
  1969   0011BC  C017  F029         	movff	?___xxtofl+1,___fldiv@a+1
  1970   0011C0  C018  F02A         	movff	?___xxtofl+2,___fldiv@a+2
  1971   0011C4  C019  F02B         	movff	?___xxtofl+3,___fldiv@a+3
  1972   0011C8  0E00               	movlw	0
  1973   0011CA  6E24               	movwf	___fldiv@b^0,c
  1974   0011CC  0E24               	movlw	36
  1975   0011CE  6E25               	movwf	(___fldiv@b+1)^0,c
  1976   0011D0  0EF4               	movlw	244
  1977   0011D2  6E26               	movwf	(___fldiv@b+2)^0,c
  1978   0011D4  0E4A               	movlw	74
  1979   0011D6  6E27               	movwf	(___fldiv@b+3)^0,c
  1980   0011D8  ECE1  F00C         	call	___fldiv	;wreg free
  1981   0011DC  C024  F0DE         	movff	?___fldiv,_EUSART_BUADRATE_Calculation$4513
  1982   0011E0  C025  F0DF         	movff	?___fldiv+1,_EUSART_BUADRATE_Calculation$4513+1
  1983   0011E4  C026  F0E0         	movff	?___fldiv+2,_EUSART_BUADRATE_Calculation$4513+2
  1984   0011E8  C027  F0E1         	movff	?___fldiv+3,_EUSART_BUADRATE_Calculation$4513+3
  1985   0011EC                     
  1986                           ;MCAL_Layer/usart/hal_usart.c: 135:             baud_rate_Temp = ((8000000UL / (float)(_
      +                          eusart->buadrate)) / 16) - 1;
  1987   0011EC  0E00               	movlw	0
  1988   0011EE  6E28               	movwf	___fldiv@a^0,c
  1989   0011F0  0E00               	movlw	0
  1990   0011F2  6E29               	movwf	(___fldiv@a+1)^0,c
  1991   0011F4  0E80               	movlw	128
  1992   0011F6  6E2A               	movwf	(___fldiv@a+2)^0,c
  1993   0011F8  0E41               	movlw	65
  1994   0011FA  6E2B               	movwf	(___fldiv@a+3)^0,c
  1995   0011FC  C0DE  F024         	movff	_EUSART_BUADRATE_Calculation$4513,___fldiv@b
  1996   001200  C0DF  F025         	movff	_EUSART_BUADRATE_Calculation$4513+1,___fldiv@b+1
  1997   001204  C0E0  F026         	movff	_EUSART_BUADRATE_Calculation$4513+2,___fldiv@b+2
  1998   001208  C0E1  F027         	movff	_EUSART_BUADRATE_Calculation$4513+3,___fldiv@b+3
  1999   00120C  ECE1  F00C         	call	___fldiv	;wreg free
  2000   001210  C024  F03D         	movff	?___fldiv,___fladd@b
  2001   001214  C025  F03E         	movff	?___fldiv+1,___fladd@b+1
  2002   001218  C026  F03F         	movff	?___fldiv+2,___fladd@b+2
  2003   00121C  C027  F040         	movff	?___fldiv+3,___fladd@b+3
  2004   001220  0E00               	movlw	0
  2005   001222  6E41               	movwf	___fladd@a^0,c
  2006   001224  0E00               	movlw	0
  2007   001226  6E42               	movwf	(___fladd@a+1)^0,c
  2008   001228  0E80               	movlw	128
  2009   00122A  6E43               	movwf	(___fladd@a+2)^0,c
  2010   00122C  0EBF               	movlw	191
  2011   00122E  6E44               	movwf	(___fladd@a+3)^0,c
  2012   001230  EC80  F00A         	call	___fladd	;wreg free
  2013   001234  C03D  F0DA         	movff	?___fladd,EUSART_BUADRATE_Calculation@baud_rate_Temp
  2014   001238  C03E  F0DB         	movff	?___fladd+1,EUSART_BUADRATE_Calculation@baud_rate_Temp+1
  2015   00123C  C03F  F0DC         	movff	?___fladd+2,EUSART_BUADRATE_Calculation@baud_rate_Temp+2
  2016   001240  C040  F0DD         	movff	?___fladd+3,EUSART_BUADRATE_Calculation@baud_rate_Temp+3
  2017                           
  2018                           ;MCAL_Layer/usart/hal_usart.c: 136:             break;
  2019   001244  EF60  F00A         	goto	l7031
  2020   001248                     l699:
  2021                           
  2022                           ; BSR set to: 0
  2023                           ;MCAL_Layer/usart/hal_usart.c: 138:             TXSTAbits.SYNC = 0;
  2024   001248  98AC               	bcf	172,4,c	;volatile
  2025                           
  2026                           ;MCAL_Layer/usart/hal_usart.c: 139:             TXSTAbits.BRGH = 1;
  2027   00124A  84AC               	bsf	172,2,c	;volatile
  2028                           
  2029                           ;MCAL_Layer/usart/hal_usart.c: 140:             BAUDCONbits.BRG16 = 1;
  2030   00124C  86B8               	bsf	184,3,c	;volatile
  2031   00124E                     
  2032                           ; BSR set to: 0
  2033                           ;MCAL_Layer/usart/hal_usart.c: 141:             baud_rate_Temp = ((8000000UL / (float)(_
      +                          eusart->buadrate)) / 4) - 1;
  2034   00124E  C0D6  FFD9         	movff	EUSART_BUADRATE_Calculation@_eusart,fsr2l
  2035   001252  C0D7  FFDA         	movff	EUSART_BUADRATE_Calculation@_eusart+1,fsr2h
  2036   001256  CFDE F016          	movff	postinc2,___xxtofl@val
  2037   00125A  CFDE F017          	movff	postinc2,___xxtofl@val+1
  2038   00125E  CFDE F018          	movff	postinc2,___xxtofl@val+2
  2039   001262  CFDE F019          	movff	postinc2,___xxtofl@val+3
  2040   001266  0E00               	movlw	0
  2041   001268  ECE5  F00F         	call	___xxtofl
  2042   00126C  C016  F028         	movff	?___xxtofl,___fldiv@a
  2043   001270  C017  F029         	movff	?___xxtofl+1,___fldiv@a+1
  2044   001274  C018  F02A         	movff	?___xxtofl+2,___fldiv@a+2
  2045   001278  C019  F02B         	movff	?___xxtofl+3,___fldiv@a+3
  2046   00127C  0E00               	movlw	0
  2047   00127E  6E24               	movwf	___fldiv@b^0,c
  2048   001280  0E24               	movlw	36
  2049   001282  6E25               	movwf	(___fldiv@b+1)^0,c
  2050   001284  0EF4               	movlw	244
  2051   001286  6E26               	movwf	(___fldiv@b+2)^0,c
  2052   001288  0E4A               	movlw	74
  2053   00128A  6E27               	movwf	(___fldiv@b+3)^0,c
  2054   00128C  ECE1  F00C         	call	___fldiv	;wreg free
  2055   001290  C024  F0DE         	movff	?___fldiv,_EUSART_BUADRATE_Calculation$4513
  2056   001294  C025  F0DF         	movff	?___fldiv+1,_EUSART_BUADRATE_Calculation$4513+1
  2057   001298  C026  F0E0         	movff	?___fldiv+2,_EUSART_BUADRATE_Calculation$4513+2
  2058   00129C  C027  F0E1         	movff	?___fldiv+3,_EUSART_BUADRATE_Calculation$4513+3
  2059   0012A0                     
  2060                           ;MCAL_Layer/usart/hal_usart.c: 141:             baud_rate_Temp = ((8000000UL / (float)(_
      +                          eusart->buadrate)) / 4) - 1;
  2061   0012A0  0E00               	movlw	0
  2062   0012A2  6E28               	movwf	___fldiv@a^0,c
  2063   0012A4  0E00               	movlw	0
  2064   0012A6  6E29               	movwf	(___fldiv@a+1)^0,c
  2065   0012A8  0E80               	movlw	128
  2066   0012AA  6E2A               	movwf	(___fldiv@a+2)^0,c
  2067   0012AC  0E40               	movlw	64
  2068   0012AE  6E2B               	movwf	(___fldiv@a+3)^0,c
  2069   0012B0  C0DE  F024         	movff	_EUSART_BUADRATE_Calculation$4513,___fldiv@b
  2070   0012B4  C0DF  F025         	movff	_EUSART_BUADRATE_Calculation$4513+1,___fldiv@b+1
  2071   0012B8  C0E0  F026         	movff	_EUSART_BUADRATE_Calculation$4513+2,___fldiv@b+2
  2072   0012BC  C0E1  F027         	movff	_EUSART_BUADRATE_Calculation$4513+3,___fldiv@b+3
  2073   0012C0  ECE1  F00C         	call	___fldiv	;wreg free
  2074   0012C4  C024  F03D         	movff	?___fldiv,___fladd@b
  2075   0012C8  C025  F03E         	movff	?___fldiv+1,___fladd@b+1
  2076   0012CC  C026  F03F         	movff	?___fldiv+2,___fladd@b+2
  2077   0012D0  C027  F040         	movff	?___fldiv+3,___fladd@b+3
  2078   0012D4  0E00               	movlw	0
  2079   0012D6  6E41               	movwf	___fladd@a^0,c
  2080   0012D8  0E00               	movlw	0
  2081   0012DA  6E42               	movwf	(___fladd@a+1)^0,c
  2082   0012DC  0E80               	movlw	128
  2083   0012DE  6E43               	movwf	(___fladd@a+2)^0,c
  2084   0012E0  0EBF               	movlw	191
  2085   0012E2  6E44               	movwf	(___fladd@a+3)^0,c
  2086   0012E4  EC80  F00A         	call	___fladd	;wreg free
  2087   0012E8  C03D  F0DA         	movff	?___fladd,EUSART_BUADRATE_Calculation@baud_rate_Temp
  2088   0012EC  C03E  F0DB         	movff	?___fladd+1,EUSART_BUADRATE_Calculation@baud_rate_Temp+1
  2089   0012F0  C03F  F0DC         	movff	?___fladd+2,EUSART_BUADRATE_Calculation@baud_rate_Temp+2
  2090   0012F4  C040  F0DD         	movff	?___fladd+3,EUSART_BUADRATE_Calculation@baud_rate_Temp+3
  2091                           
  2092                           ;MCAL_Layer/usart/hal_usart.c: 142:             break;
  2093   0012F8  EF60  F00A         	goto	l7031
  2094   0012FC                     l700:
  2095                           
  2096                           ; BSR set to: 0
  2097                           ;MCAL_Layer/usart/hal_usart.c: 144:             TXSTAbits.SYNC = 1;
  2098   0012FC  88AC               	bsf	172,4,c	;volatile
  2099                           
  2100                           ;MCAL_Layer/usart/hal_usart.c: 146:             BAUDCONbits.BRG16 = 0;
  2101   0012FE  96B8               	bcf	184,3,c	;volatile
  2102   001300                     
  2103                           ; BSR set to: 0
  2104                           ;MCAL_Layer/usart/hal_usart.c: 147:             baud_rate_Temp = ((8000000UL / (float)(_
      +                          eusart->buadrate)) / 4) - 1;
  2105   001300  C0D6  FFD9         	movff	EUSART_BUADRATE_Calculation@_eusart,fsr2l
  2106   001304  C0D7  FFDA         	movff	EUSART_BUADRATE_Calculation@_eusart+1,fsr2h
  2107   001308  CFDE F016          	movff	postinc2,___xxtofl@val
  2108   00130C  CFDE F017          	movff	postinc2,___xxtofl@val+1
  2109   001310  CFDE F018          	movff	postinc2,___xxtofl@val+2
  2110   001314  CFDE F019          	movff	postinc2,___xxtofl@val+3
  2111   001318  0E00               	movlw	0
  2112   00131A  ECE5  F00F         	call	___xxtofl
  2113   00131E  C016  F028         	movff	?___xxtofl,___fldiv@a
  2114   001322  C017  F029         	movff	?___xxtofl+1,___fldiv@a+1
  2115   001326  C018  F02A         	movff	?___xxtofl+2,___fldiv@a+2
  2116   00132A  C019  F02B         	movff	?___xxtofl+3,___fldiv@a+3
  2117   00132E  0E00               	movlw	0
  2118   001330  6E24               	movwf	___fldiv@b^0,c
  2119   001332  0E24               	movlw	36
  2120   001334  6E25               	movwf	(___fldiv@b+1)^0,c
  2121   001336  0EF4               	movlw	244
  2122   001338  6E26               	movwf	(___fldiv@b+2)^0,c
  2123   00133A  0E4A               	movlw	74
  2124   00133C  6E27               	movwf	(___fldiv@b+3)^0,c
  2125   00133E  ECE1  F00C         	call	___fldiv	;wreg free
  2126   001342  C024  F0DE         	movff	?___fldiv,_EUSART_BUADRATE_Calculation$4513
  2127   001346  C025  F0DF         	movff	?___fldiv+1,_EUSART_BUADRATE_Calculation$4513+1
  2128   00134A  C026  F0E0         	movff	?___fldiv+2,_EUSART_BUADRATE_Calculation$4513+2
  2129   00134E  C027  F0E1         	movff	?___fldiv+3,_EUSART_BUADRATE_Calculation$4513+3
  2130   001352                     
  2131                           ;MCAL_Layer/usart/hal_usart.c: 147:             baud_rate_Temp = ((8000000UL / (float)(_
      +                          eusart->buadrate)) / 4) - 1;
  2132   001352  0E00               	movlw	0
  2133   001354  6E28               	movwf	___fldiv@a^0,c
  2134   001356  0E00               	movlw	0
  2135   001358  6E29               	movwf	(___fldiv@a+1)^0,c
  2136   00135A  0E80               	movlw	128
  2137   00135C  6E2A               	movwf	(___fldiv@a+2)^0,c
  2138   00135E  0E40               	movlw	64
  2139   001360  6E2B               	movwf	(___fldiv@a+3)^0,c
  2140   001362  C0DE  F024         	movff	_EUSART_BUADRATE_Calculation$4513,___fldiv@b
  2141   001366  C0DF  F025         	movff	_EUSART_BUADRATE_Calculation$4513+1,___fldiv@b+1
  2142   00136A  C0E0  F026         	movff	_EUSART_BUADRATE_Calculation$4513+2,___fldiv@b+2
  2143   00136E  C0E1  F027         	movff	_EUSART_BUADRATE_Calculation$4513+3,___fldiv@b+3
  2144   001372  ECE1  F00C         	call	___fldiv	;wreg free
  2145   001376  C024  F03D         	movff	?___fldiv,___fladd@b
  2146   00137A  C025  F03E         	movff	?___fldiv+1,___fladd@b+1
  2147   00137E  C026  F03F         	movff	?___fldiv+2,___fladd@b+2
  2148   001382  C027  F040         	movff	?___fldiv+3,___fladd@b+3
  2149   001386  0E00               	movlw	0
  2150   001388  6E41               	movwf	___fladd@a^0,c
  2151   00138A  0E00               	movlw	0
  2152   00138C  6E42               	movwf	(___fladd@a+1)^0,c
  2153   00138E  0E80               	movlw	128
  2154   001390  6E43               	movwf	(___fladd@a+2)^0,c
  2155   001392  0EBF               	movlw	191
  2156   001394  6E44               	movwf	(___fladd@a+3)^0,c
  2157   001396  EC80  F00A         	call	___fladd	;wreg free
  2158   00139A  C03D  F0DA         	movff	?___fladd,EUSART_BUADRATE_Calculation@baud_rate_Temp
  2159   00139E  C03E  F0DB         	movff	?___fladd+1,EUSART_BUADRATE_Calculation@baud_rate_Temp+1
  2160   0013A2  C03F  F0DC         	movff	?___fladd+2,EUSART_BUADRATE_Calculation@baud_rate_Temp+2
  2161   0013A6  C040  F0DD         	movff	?___fladd+3,EUSART_BUADRATE_Calculation@baud_rate_Temp+3
  2162                           
  2163                           ;MCAL_Layer/usart/hal_usart.c: 148:             break;
  2164   0013AA  EF60  F00A         	goto	l7031
  2165   0013AE                     l701:
  2166                           
  2167                           ; BSR set to: 0
  2168                           ;MCAL_Layer/usart/hal_usart.c: 150:             TXSTAbits.SYNC = 1;
  2169   0013AE  88AC               	bsf	172,4,c	;volatile
  2170                           
  2171                           ;MCAL_Layer/usart/hal_usart.c: 152:             BAUDCONbits.BRG16 = 1;
  2172   0013B0  86B8               	bsf	184,3,c	;volatile
  2173   0013B2                     
  2174                           ; BSR set to: 0
  2175                           ;MCAL_Layer/usart/hal_usart.c: 153:             baud_rate_Temp = ((8000000UL / (float)(_
      +                          eusart->buadrate)) / 4) - 1;
  2176   0013B2  C0D6  FFD9         	movff	EUSART_BUADRATE_Calculation@_eusart,fsr2l
  2177   0013B6  C0D7  FFDA         	movff	EUSART_BUADRATE_Calculation@_eusart+1,fsr2h
  2178   0013BA  CFDE F016          	movff	postinc2,___xxtofl@val
  2179   0013BE  CFDE F017          	movff	postinc2,___xxtofl@val+1
  2180   0013C2  CFDE F018          	movff	postinc2,___xxtofl@val+2
  2181   0013C6  CFDE F019          	movff	postinc2,___xxtofl@val+3
  2182   0013CA  0E00               	movlw	0
  2183   0013CC  ECE5  F00F         	call	___xxtofl
  2184   0013D0  C016  F028         	movff	?___xxtofl,___fldiv@a
  2185   0013D4  C017  F029         	movff	?___xxtofl+1,___fldiv@a+1
  2186   0013D8  C018  F02A         	movff	?___xxtofl+2,___fldiv@a+2
  2187   0013DC  C019  F02B         	movff	?___xxtofl+3,___fldiv@a+3
  2188   0013E0  0E00               	movlw	0
  2189   0013E2  6E24               	movwf	___fldiv@b^0,c
  2190   0013E4  0E24               	movlw	36
  2191   0013E6  6E25               	movwf	(___fldiv@b+1)^0,c
  2192   0013E8  0EF4               	movlw	244
  2193   0013EA  6E26               	movwf	(___fldiv@b+2)^0,c
  2194   0013EC  0E4A               	movlw	74
  2195   0013EE  6E27               	movwf	(___fldiv@b+3)^0,c
  2196   0013F0  ECE1  F00C         	call	___fldiv	;wreg free
  2197   0013F4  C024  F0DE         	movff	?___fldiv,_EUSART_BUADRATE_Calculation$4513
  2198   0013F8  C025  F0DF         	movff	?___fldiv+1,_EUSART_BUADRATE_Calculation$4513+1
  2199   0013FC  C026  F0E0         	movff	?___fldiv+2,_EUSART_BUADRATE_Calculation$4513+2
  2200   001400  C027  F0E1         	movff	?___fldiv+3,_EUSART_BUADRATE_Calculation$4513+3
  2201   001404                     
  2202                           ;MCAL_Layer/usart/hal_usart.c: 153:             baud_rate_Temp = ((8000000UL / (float)(_
      +                          eusart->buadrate)) / 4) - 1;
  2203   001404  0E00               	movlw	0
  2204   001406  6E28               	movwf	___fldiv@a^0,c
  2205   001408  0E00               	movlw	0
  2206   00140A  6E29               	movwf	(___fldiv@a+1)^0,c
  2207   00140C  0E80               	movlw	128
  2208   00140E  6E2A               	movwf	(___fldiv@a+2)^0,c
  2209   001410  0E40               	movlw	64
  2210   001412  6E2B               	movwf	(___fldiv@a+3)^0,c
  2211   001414  C0DE  F024         	movff	_EUSART_BUADRATE_Calculation$4513,___fldiv@b
  2212   001418  C0DF  F025         	movff	_EUSART_BUADRATE_Calculation$4513+1,___fldiv@b+1
  2213   00141C  C0E0  F026         	movff	_EUSART_BUADRATE_Calculation$4513+2,___fldiv@b+2
  2214   001420  C0E1  F027         	movff	_EUSART_BUADRATE_Calculation$4513+3,___fldiv@b+3
  2215   001424  ECE1  F00C         	call	___fldiv	;wreg free
  2216   001428  C024  F03D         	movff	?___fldiv,___fladd@b
  2217   00142C  C025  F03E         	movff	?___fldiv+1,___fladd@b+1
  2218   001430  C026  F03F         	movff	?___fldiv+2,___fladd@b+2
  2219   001434  C027  F040         	movff	?___fldiv+3,___fladd@b+3
  2220   001438  0E00               	movlw	0
  2221   00143A  6E41               	movwf	___fladd@a^0,c
  2222   00143C  0E00               	movlw	0
  2223   00143E  6E42               	movwf	(___fladd@a+1)^0,c
  2224   001440  0E80               	movlw	128
  2225   001442  6E43               	movwf	(___fladd@a+2)^0,c
  2226   001444  0EBF               	movlw	191
  2227   001446  6E44               	movwf	(___fladd@a+3)^0,c
  2228   001448  EC80  F00A         	call	___fladd	;wreg free
  2229   00144C  C03D  F0DA         	movff	?___fladd,EUSART_BUADRATE_Calculation@baud_rate_Temp
  2230   001450  C03E  F0DB         	movff	?___fladd+1,EUSART_BUADRATE_Calculation@baud_rate_Temp+1
  2231   001454  C03F  F0DC         	movff	?___fladd+2,EUSART_BUADRATE_Calculation@baud_rate_Temp+2
  2232   001458  C040  F0DD         	movff	?___fladd+3,EUSART_BUADRATE_Calculation@baud_rate_Temp+3
  2233                           
  2234                           ;MCAL_Layer/usart/hal_usart.c: 154:             break;
  2235   00145C  EF60  F00A         	goto	l7031
  2236   001460                     l702:
  2237                           
  2238                           ; BSR set to: 0
  2239                           ;MCAL_Layer/usart/hal_usart.c: 156:             TXSTAbits.SYNC = 0;
  2240   001460  98AC               	bcf	172,4,c	;volatile
  2241                           
  2242                           ;MCAL_Layer/usart/hal_usart.c: 157:             TXSTAbits.BRGH = 1;
  2243   001462  84AC               	bsf	172,2,c	;volatile
  2244                           
  2245                           ;MCAL_Layer/usart/hal_usart.c: 158:             BAUDCONbits.BRG16 = 1;
  2246   001464  86B8               	bsf	184,3,c	;volatile
  2247                           
  2248                           ;MCAL_Layer/usart/hal_usart.c: 159:             break;
  2249   001466  EF60  F00A         	goto	l7031
  2250   00146A                     l7029:
  2251                           
  2252                           ; BSR set to: 0
  2253   00146A  EE20 F004          	lfsr	2,4
  2254   00146E  51D6               	movf	EUSART_BUADRATE_Calculation@_eusart& (0+255),w,b
  2255   001470  26D9               	addwf	fsr2l,f,c
  2256   001472  51D7               	movf	(EUSART_BUADRATE_Calculation@_eusart+1)& (0+255),w,b
  2257   001474  22DA               	addwfc	fsr2h,f,c
  2258   001476  50DF               	movf	indf2,w,c
  2259   001478  6FD8               	movwf	??_EUSART_BUADRATE_Calculation& (0+255),b
  2260   00147A  6BD9               	clrf	(??_EUSART_BUADRATE_Calculation+1)& (0+255),b
  2261                           
  2262                           ; Switch on 2 bytes has been partitioned into a top level switch of size 1, and 1 sub-sw
      +                          itches
  2263                           ; Switch size 1, requested type "simple"
  2264                           ; Number of cases is 1, Range of values is 0 to 0
  2265                           ; switch strategies available:
  2266                           ; Name         Instructions Cycles
  2267                           ; simple_byte            4     3 (average)
  2268                           ;	Chosen strategy is simple_byte
  2269   00147C  51D9               	movf	(??_EUSART_BUADRATE_Calculation+1)& (0+255),w,b
  2270   00147E  0A00               	xorlw	0	; case 0
  2271   001480  B4D8               	btfsc	status,2,c
  2272   001482  EF45  F00A         	goto	l7173
  2273   001486  EF30  F00A         	goto	l702
  2274   00148A                     l7173:
  2275                           
  2276                           ; BSR set to: 0
  2277                           ; Switch size 1, requested type "simple"
  2278                           ; Number of cases is 6, Range of values is 0 to 5
  2279                           ; switch strategies available:
  2280                           ; Name         Instructions Cycles
  2281                           ; simple_byte           19    10 (average)
  2282                           ;	Chosen strategy is simple_byte
  2283   00148A  51D8               	movf	??_EUSART_BUADRATE_Calculation& (0+255),w,b
  2284   00148C  0A00               	xorlw	0	; case 0
  2285   00148E  B4D8               	btfsc	status,2,c
  2286   001490  EF16  F008         	goto	l695
  2287   001494  0A01               	xorlw	1	; case 1
  2288   001496  B4D8               	btfsc	status,2,c
  2289   001498  EF70  F008         	goto	l697
  2290   00149C  0A03               	xorlw	3	; case 2
  2291   00149E  B4D8               	btfsc	status,2,c
  2292   0014A0  EFCA  F008         	goto	l698
  2293   0014A4  0A01               	xorlw	1	; case 3
  2294   0014A6  B4D8               	btfsc	status,2,c
  2295   0014A8  EF24  F009         	goto	l699
  2296   0014AC  0A07               	xorlw	7	; case 4
  2297   0014AE  B4D8               	btfsc	status,2,c
  2298   0014B0  EF7E  F009         	goto	l700
  2299   0014B4  0A01               	xorlw	1	; case 5
  2300   0014B6  B4D8               	btfsc	status,2,c
  2301   0014B8  EFD7  F009         	goto	l701
  2302   0014BC  EF30  F00A         	goto	l702
  2303   0014C0                     l7031:
  2304                           
  2305                           ;MCAL_Layer/usart/hal_usart.c: 162:     SPBRG = (uint8)((uint32)baud_rate_Temp);
  2306   0014C0  C0DA  F016         	movff	EUSART_BUADRATE_Calculation@baud_rate_Temp,___fltol@f1
  2307   0014C4  C0DB  F017         	movff	EUSART_BUADRATE_Calculation@baud_rate_Temp+1,___fltol@f1+1
  2308   0014C8  C0DC  F018         	movff	EUSART_BUADRATE_Calculation@baud_rate_Temp+2,___fltol@f1+2
  2309   0014CC  C0DD  F019         	movff	EUSART_BUADRATE_Calculation@baud_rate_Temp+3,___fltol@f1+3
  2310   0014D0  ECB5  F012         	call	___fltol	;wreg free
  2311   0014D4  5016               	movf	?___fltol^0,w,c
  2312   0014D6  6EAF               	movwf	175,c	;volatile
  2313                           
  2314                           ;MCAL_Layer/usart/hal_usart.c: 163:     SPBRGH = (uint8)((uint32)baud_rate_Temp >> 8);
  2315   0014D8  C0DA  F016         	movff	EUSART_BUADRATE_Calculation@baud_rate_Temp,___fltol@f1
  2316   0014DC  C0DB  F017         	movff	EUSART_BUADRATE_Calculation@baud_rate_Temp+1,___fltol@f1+1
  2317   0014E0  C0DC  F018         	movff	EUSART_BUADRATE_Calculation@baud_rate_Temp+2,___fltol@f1+2
  2318   0014E4  C0DD  F019         	movff	EUSART_BUADRATE_Calculation@baud_rate_Temp+3,___fltol@f1+3
  2319   0014E8  ECB5  F012         	call	___fltol	;wreg free
  2320   0014EC  C017  F016         	movff	?___fltol+1,?___fltol
  2321   0014F0  C018  F017         	movff	?___fltol+2,?___fltol+1
  2322   0014F4  C019  F018         	movff	?___fltol+3,?___fltol+2
  2323   0014F8  6A19               	clrf	(?___fltol+3)^0,c
  2324   0014FA  5016               	movf	?___fltol^0,w,c
  2325   0014FC  6EB0               	movwf	176,c	;volatile
  2326   0014FE  0012               	return		;funcret
  2327   001500                     __end_of_EUSART_BUADRATE_Calculation:
  2328                           	callstack 0
  2329                           
  2330 ;; *************** function ___xxtofl *****************
  2331 ;; Defined at:
  2332 ;;		line 10 in file "C:\Program Files\Microchip\xc8\v2.40\pic\sources\c99\common\xxtofl.c"
  2333 ;; Parameters:    Size  Location     Type
  2334 ;;  sign            1    wreg     unsigned char 
  2335 ;;  val             4   21[COMRAM] long 
  2336 ;; Auto vars:     Size  Location     Type
  2337 ;;  sign            1   29[COMRAM] unsigned char 
  2338 ;;  arg             4   31[COMRAM] unsigned long 
  2339 ;;  exp             1   30[COMRAM] unsigned char 
  2340 ;; Return value:  Size  Location     Type
  2341 ;;                  4   21[COMRAM] unsigned char 
  2342 ;; Registers used:
  2343 ;;		wreg, status,2, status,0
  2344 ;; Tracked objects:
  2345 ;;		On entry : 0/0
  2346 ;;		On exit  : 0/0
  2347 ;;		Unchanged: 0/0
  2348 ;; Data sizes:     COMRAM   BANK0   BANK1   BANK2   BANK3   BANK4   BANK5   BANK6   BANK7   BANK8   BANK9  BANK10  BANK1
      +1  BANK12  BANK13  BANK14  BANK15
  2349 ;;      Params:         4       0       0       0       0       0       0       0       0       0       0       0       
      +0       0       0       0       0
  2350 ;;      Locals:         6       0       0       0       0       0       0       0       0       0       0       0       
      +0       0       0       0       0
  2351 ;;      Temps:          4       0       0       0       0       0       0       0       0       0       0       0       
      +0       0       0       0       0
  2352 ;;      Totals:        14       0       0       0       0       0       0       0       0       0       0       0       
      +0       0       0       0       0
  2353 ;;Total ram usage:       14 bytes
  2354 ;; Hardware stack levels used: 1
  2355 ;; Hardware stack levels required when called: 5
  2356 ;; This function calls:
  2357 ;;		Nothing
  2358 ;; This function is called by:
  2359 ;;		_EUSART_BUADRATE_Calculation
  2360 ;; This function uses a non-reentrant model
  2361 ;;
  2362                           
  2363                           	psect	text9
  2364   001FCA                     __ptext9:
  2365                           	callstack 0
  2366   001FCA                     ___xxtofl:
  2367                           	callstack 22
  2368                           
  2369                           ;incstack = 0
  2370                           ;___xxtofl@sign stored from wreg
  2371   001FCA  6E1E               	movwf	___xxtofl@sign^0,c
  2372   001FCC  501E               	movf	___xxtofl@sign^0,w,c
  2373   001FCE  B4D8               	btfsc	status,2,c
  2374   001FD0  EFEC  F00F         	goto	u6731
  2375   001FD4  EFEE  F00F         	goto	u6730
  2376   001FD8                     u6731:
  2377   001FD8  EF10  F010         	goto	l2006
  2378   001FDC                     u6730:
  2379   001FDC  BE19               	btfsc	(___xxtofl@val+3)^0,7,c
  2380   001FDE  EFF5  F00F         	goto	u6740
  2381   001FE2  EFF3  F00F         	goto	u6741
  2382   001FE6                     u6741:
  2383   001FE6  EF10  F010         	goto	l2006
  2384   001FEA                     u6740:
  2385   001FEA  C016  F01A         	movff	___xxtofl@val,??___xxtofl
  2386   001FEE  C017  F01B         	movff	___xxtofl@val+1,??___xxtofl+1
  2387   001FF2  C018  F01C         	movff	___xxtofl@val+2,??___xxtofl+2
  2388   001FF6  C019  F01D         	movff	___xxtofl@val+3,??___xxtofl+3
  2389   001FFA  1E1A               	comf	??___xxtofl^0,f,c
  2390   001FFC  1E1B               	comf	(??___xxtofl+1)^0,f,c
  2391   001FFE  1E1C               	comf	(??___xxtofl+2)^0,f,c
  2392   002000  1E1D               	comf	(??___xxtofl+3)^0,f,c
  2393   002002  2A1A               	incf	??___xxtofl^0,f,c
  2394   002004  0E00               	movlw	0
  2395   002006  221B               	addwfc	(??___xxtofl+1)^0,f,c
  2396   002008  221C               	addwfc	(??___xxtofl+2)^0,f,c
  2397   00200A  221D               	addwfc	(??___xxtofl+3)^0,f,c
  2398   00200C  C01A  F020         	movff	??___xxtofl,___xxtofl@arg
  2399   002010  C01B  F021         	movff	??___xxtofl+1,___xxtofl@arg+1
  2400   002014  C01C  F022         	movff	??___xxtofl+2,___xxtofl@arg+2
  2401   002018  C01D  F023         	movff	??___xxtofl+3,___xxtofl@arg+3
  2402   00201C  EF18  F010         	goto	l6961
  2403   002020                     l2006:
  2404   002020  C016  F020         	movff	___xxtofl@val,___xxtofl@arg
  2405   002024  C017  F021         	movff	___xxtofl@val+1,___xxtofl@arg+1
  2406   002028  C018  F022         	movff	___xxtofl@val+2,___xxtofl@arg+2
  2407   00202C  C019  F023         	movff	___xxtofl@val+3,___xxtofl@arg+3
  2408   002030                     l6961:
  2409   002030  5016               	movf	___xxtofl@val^0,w,c
  2410   002032  1017               	iorwf	(___xxtofl@val+1)^0,w,c
  2411   002034  1018               	iorwf	(___xxtofl@val+2)^0,w,c
  2412   002036  1019               	iorwf	(___xxtofl@val+3)^0,w,c
  2413   002038  A4D8               	btfss	status,2,c
  2414   00203A  EF21  F010         	goto	u6751
  2415   00203E  EF23  F010         	goto	u6750
  2416   002042                     u6751:
  2417   002042  EF2D  F010         	goto	l6967
  2418   002046                     u6750:
  2419   002046  0E00               	movlw	0
  2420   002048  6E16               	movwf	?___xxtofl^0,c
  2421   00204A  0E00               	movlw	0
  2422   00204C  6E17               	movwf	(?___xxtofl+1)^0,c
  2423   00204E  0E00               	movlw	0
  2424   002050  6E18               	movwf	(?___xxtofl+2)^0,c
  2425   002052  0E00               	movlw	0
  2426   002054  6E19               	movwf	(?___xxtofl+3)^0,c
  2427   002056  EFBE  F010         	goto	l2009
  2428   00205A                     l6967:
  2429   00205A  0E96               	movlw	150
  2430   00205C  6E1F               	movwf	___xxtofl@exp^0,c
  2431   00205E  EF37  F010         	goto	l6971
  2432   002062                     l6969:
  2433   002062  2A1F               	incf	___xxtofl@exp^0,f,c
  2434   002064  90D8               	bcf	status,0,c
  2435   002066  3223               	rrcf	(___xxtofl@arg+3)^0,f,c
  2436   002068  3222               	rrcf	(___xxtofl@arg+2)^0,f,c
  2437   00206A  3221               	rrcf	(___xxtofl@arg+1)^0,f,c
  2438   00206C  3220               	rrcf	___xxtofl@arg^0,f,c
  2439   00206E                     l6971:
  2440   00206E  0E00               	movlw	0
  2441   002070  1420               	andwf	___xxtofl@arg^0,w,c
  2442   002072  6E1A               	movwf	??___xxtofl^0,c
  2443   002074  0E00               	movlw	0
  2444   002076  1421               	andwf	(___xxtofl@arg+1)^0,w,c
  2445   002078  6E1B               	movwf	(??___xxtofl+1)^0,c
  2446   00207A  0E00               	movlw	0
  2447   00207C  1422               	andwf	(___xxtofl@arg+2)^0,w,c
  2448   00207E  6E1C               	movwf	(??___xxtofl+2)^0,c
  2449   002080  0EFE               	movlw	254
  2450   002082  1423               	andwf	(___xxtofl@arg+3)^0,w,c
  2451   002084  6E1D               	movwf	(??___xxtofl+3)^0,c
  2452   002086  501A               	movf	??___xxtofl^0,w,c
  2453   002088  101B               	iorwf	(??___xxtofl+1)^0,w,c
  2454   00208A  101C               	iorwf	(??___xxtofl+2)^0,w,c
  2455   00208C  101D               	iorwf	(??___xxtofl+3)^0,w,c
  2456   00208E  A4D8               	btfss	status,2,c
  2457   002090  EF4C  F010         	goto	u6761
  2458   002094  EF4E  F010         	goto	u6760
  2459   002098                     u6761:
  2460   002098  EF31  F010         	goto	l6969
  2461   00209C                     u6760:
  2462   00209C  EF5C  F010         	goto	l2013
  2463   0020A0                     l6973:
  2464   0020A0  2A1F               	incf	___xxtofl@exp^0,f,c
  2465   0020A2  0E01               	movlw	1
  2466   0020A4  2620               	addwf	___xxtofl@arg^0,f,c
  2467   0020A6  0E00               	movlw	0
  2468   0020A8  2221               	addwfc	(___xxtofl@arg+1)^0,f,c
  2469   0020AA  2222               	addwfc	(___xxtofl@arg+2)^0,f,c
  2470   0020AC  2223               	addwfc	(___xxtofl@arg+3)^0,f,c
  2471   0020AE  90D8               	bcf	status,0,c
  2472   0020B0  3223               	rrcf	(___xxtofl@arg+3)^0,f,c
  2473   0020B2  3222               	rrcf	(___xxtofl@arg+2)^0,f,c
  2474   0020B4  3221               	rrcf	(___xxtofl@arg+1)^0,f,c
  2475   0020B6  3220               	rrcf	___xxtofl@arg^0,f,c
  2476   0020B8                     l2013:
  2477   0020B8  0E00               	movlw	0
  2478   0020BA  1420               	andwf	___xxtofl@arg^0,w,c
  2479   0020BC  6E1A               	movwf	??___xxtofl^0,c
  2480   0020BE  0E00               	movlw	0
  2481   0020C0  1421               	andwf	(___xxtofl@arg+1)^0,w,c
  2482   0020C2  6E1B               	movwf	(??___xxtofl+1)^0,c
  2483   0020C4  0E00               	movlw	0
  2484   0020C6  1422               	andwf	(___xxtofl@arg+2)^0,w,c
  2485   0020C8  6E1C               	movwf	(??___xxtofl+2)^0,c
  2486   0020CA  0EFF               	movlw	255
  2487   0020CC  1423               	andwf	(___xxtofl@arg+3)^0,w,c
  2488   0020CE  6E1D               	movwf	(??___xxtofl+3)^0,c
  2489   0020D0  501A               	movf	??___xxtofl^0,w,c
  2490   0020D2  101B               	iorwf	(??___xxtofl+1)^0,w,c
  2491   0020D4  101C               	iorwf	(??___xxtofl+2)^0,w,c
  2492   0020D6  101D               	iorwf	(??___xxtofl+3)^0,w,c
  2493   0020D8  A4D8               	btfss	status,2,c
  2494   0020DA  EF71  F010         	goto	u6771
  2495   0020DE  EF73  F010         	goto	u6770
  2496   0020E2                     u6771:
  2497   0020E2  EF50  F010         	goto	l6973
  2498   0020E6                     u6770:
  2499   0020E6  EF7B  F010         	goto	l6981
  2500   0020EA                     l6979:
  2501   0020EA  061F               	decf	___xxtofl@exp^0,f,c
  2502   0020EC  90D8               	bcf	status,0,c
  2503   0020EE  3620               	rlcf	___xxtofl@arg^0,f,c
  2504   0020F0  3621               	rlcf	(___xxtofl@arg+1)^0,f,c
  2505   0020F2  3622               	rlcf	(___xxtofl@arg+2)^0,f,c
  2506   0020F4  3623               	rlcf	(___xxtofl@arg+3)^0,f,c
  2507   0020F6                     l6981:
  2508   0020F6  BE22               	btfsc	(___xxtofl@arg+2)^0,7,c
  2509   0020F8  EF80  F010         	goto	u6781
  2510   0020FC  EF82  F010         	goto	u6780
  2511   002100                     u6781:
  2512   002100  EF8A  F010         	goto	l2020
  2513   002104                     u6780:
  2514   002104  0E02               	movlw	2
  2515   002106  601F               	cpfslt	___xxtofl@exp^0,c
  2516   002108  EF88  F010         	goto	u6791
  2517   00210C  EF8A  F010         	goto	u6790
  2518   002110                     u6791:
  2519   002110  EF75  F010         	goto	l6979
  2520   002114                     u6790:
  2521   002114                     l2020:
  2522   002114  B01F               	btfsc	___xxtofl@exp^0,0,c
  2523   002116  EF8F  F010         	goto	u6801
  2524   00211A  EF91  F010         	goto	u6800
  2525   00211E                     u6801:
  2526   00211E  EF92  F010         	goto	l6987
  2527   002122                     u6800:
  2528   002122  9E22               	bcf	(___xxtofl@arg+2)^0,7,c
  2529   002124                     l6987:
  2530   002124  90D8               	bcf	status,0,c
  2531   002126  321F               	rrcf	___xxtofl@exp^0,f,c
  2532   002128  C01F  F01A         	movff	___xxtofl@exp,??___xxtofl
  2533   00212C  6A1B               	clrf	(??___xxtofl+1)^0,c
  2534   00212E  6A1C               	clrf	(??___xxtofl+2)^0,c
  2535   002130  6A1D               	clrf	(??___xxtofl+3)^0,c
  2536   002132  C01A  F01D         	movff	??___xxtofl,??___xxtofl+3
  2537   002136  6A1C               	clrf	(??___xxtofl+2)^0,c
  2538   002138  6A1B               	clrf	(??___xxtofl+1)^0,c
  2539   00213A  6A1A               	clrf	??___xxtofl^0,c
  2540   00213C  501A               	movf	??___xxtofl^0,w,c
  2541   00213E  1220               	iorwf	___xxtofl@arg^0,f,c
  2542   002140  501B               	movf	(??___xxtofl+1)^0,w,c
  2543   002142  1221               	iorwf	(___xxtofl@arg+1)^0,f,c
  2544   002144  501C               	movf	(??___xxtofl+2)^0,w,c
  2545   002146  1222               	iorwf	(___xxtofl@arg+2)^0,f,c
  2546   002148  501D               	movf	(??___xxtofl+3)^0,w,c
  2547   00214A  1223               	iorwf	(___xxtofl@arg+3)^0,f,c
  2548   00214C  501E               	movf	___xxtofl@sign^0,w,c
  2549   00214E  B4D8               	btfsc	status,2,c
  2550   002150  EFAC  F010         	goto	u6811
  2551   002154  EFAE  F010         	goto	u6810
  2552   002158                     u6811:
  2553   002158  EFB6  F010         	goto	l6997
  2554   00215C                     u6810:
  2555   00215C  BE19               	btfsc	(___xxtofl@val+3)^0,7,c
  2556   00215E  EFB5  F010         	goto	u6820
  2557   002162  EFB3  F010         	goto	u6821
  2558   002166                     u6821:
  2559   002166  EFB6  F010         	goto	l6997
  2560   00216A                     u6820:
  2561   00216A  8E23               	bsf	(___xxtofl@arg+3)^0,7,c
  2562   00216C                     l6997:
  2563   00216C  C020  F016         	movff	___xxtofl@arg,?___xxtofl
  2564   002170  C021  F017         	movff	___xxtofl@arg+1,?___xxtofl+1
  2565   002174  C022  F018         	movff	___xxtofl@arg+2,?___xxtofl+2
  2566   002178  C023  F019         	movff	___xxtofl@arg+3,?___xxtofl+3
  2567   00217C                     l2009:
  2568   00217C  0012               	return		;funcret
  2569   00217E                     __end_of___xxtofl:
  2570                           	callstack 0
  2571                           
  2572 ;; *************** function ___fltol *****************
  2573 ;; Defined at:
  2574 ;;		line 43 in file "C:\Program Files\Microchip\xc8\v2.40\pic\sources\c99\common\fltol.c"
  2575 ;; Parameters:    Size  Location     Type
  2576 ;;  f1              4   21[COMRAM] unsigned char 
  2577 ;; Auto vars:     Size  Location     Type
  2578 ;;  exp1            1   30[COMRAM] unsigned char 
  2579 ;;  sign1           1   29[COMRAM] unsigned char 
  2580 ;; Return value:  Size  Location     Type
  2581 ;;                  4   21[COMRAM] long 
  2582 ;; Registers used:
  2583 ;;		wreg, status,2, status,0
  2584 ;; Tracked objects:
  2585 ;;		On entry : 0/0
  2586 ;;		On exit  : 0/0
  2587 ;;		Unchanged: 0/0
  2588 ;; Data sizes:     COMRAM   BANK0   BANK1   BANK2   BANK3   BANK4   BANK5   BANK6   BANK7   BANK8   BANK9  BANK10  BANK1
      +1  BANK12  BANK13  BANK14  BANK15
  2589 ;;      Params:         4       0       0       0       0       0       0       0       0       0       0       0       
      +0       0       0       0       0
  2590 ;;      Locals:         2       0       0       0       0       0       0       0       0       0       0       0       
      +0       0       0       0       0
  2591 ;;      Temps:          4       0       0       0       0       0       0       0       0       0       0       0       
      +0       0       0       0       0
  2592 ;;      Totals:        10       0       0       0       0       0       0       0       0       0       0       0       
      +0       0       0       0       0
  2593 ;;Total ram usage:       10 bytes
  2594 ;; Hardware stack levels used: 1
  2595 ;; Hardware stack levels required when called: 5
  2596 ;; This function calls:
  2597 ;;		Nothing
  2598 ;; This function is called by:
  2599 ;;		_EUSART_BUADRATE_Calculation
  2600 ;; This function uses a non-reentrant model
  2601 ;;
  2602                           
  2603                           	psect	text10
  2604   00256A                     __ptext10:
  2605                           	callstack 0
  2606   00256A                     ___fltol:
  2607                           	callstack 22
  2608   00256A  3418               	rlcf	(___fltol@f1+2)^0,w,c
  2609   00256C  3419               	rlcf	(___fltol@f1+3)^0,w,c
  2610   00256E  6E1F               	movwf	___fltol@exp1^0,c
  2611   002570  501F               	movf	___fltol@exp1^0,w,c
  2612   002572  A4D8               	btfss	status,2,c
  2613   002574  EFBE  F012         	goto	u6661
  2614   002578  EFC0  F012         	goto	u6660
  2615   00257C                     u6661:
  2616   00257C  EFCA  F012         	goto	l6917
  2617   002580                     u6660:
  2618   002580                     l6913:
  2619   002580  0E00               	movlw	0
  2620   002582  6E16               	movwf	?___fltol^0,c
  2621   002584  0E00               	movlw	0
  2622   002586  6E17               	movwf	(?___fltol+1)^0,c
  2623   002588  0E00               	movlw	0
  2624   00258A  6E18               	movwf	(?___fltol+2)^0,c
  2625   00258C  0E00               	movlw	0
  2626   00258E  6E19               	movwf	(?___fltol+3)^0,c
  2627   002590  EF37  F013         	goto	l1648
  2628   002594                     l6917:
  2629   002594  C016  F01A         	movff	___fltol@f1,??___fltol
  2630   002598  C017  F01B         	movff	___fltol@f1+1,??___fltol+1
  2631   00259C  C018  F01C         	movff	___fltol@f1+2,??___fltol+2
  2632   0025A0  C019  F01D         	movff	___fltol@f1+3,??___fltol+3
  2633   0025A4  0E20               	movlw	32
  2634   0025A6  EFDA  F012         	goto	u6670
  2635   0025AA                     u6675:
  2636   0025AA  90D8               	bcf	status,0,c
  2637   0025AC  321D               	rrcf	(??___fltol+3)^0,f,c
  2638   0025AE  321C               	rrcf	(??___fltol+2)^0,f,c
  2639   0025B0  321B               	rrcf	(??___fltol+1)^0,f,c
  2640   0025B2  321A               	rrcf	??___fltol^0,f,c
  2641   0025B4                     u6670:
  2642   0025B4  2EE8               	decfsz	wreg,f,c
  2643   0025B6  EFD5  F012         	goto	u6675
  2644   0025BA  501A               	movf	??___fltol^0,w,c
  2645   0025BC  6E1E               	movwf	___fltol@sign1^0,c
  2646   0025BE  8E18               	bsf	(___fltol@f1+2)^0,7,c
  2647   0025C0  0EFF               	movlw	255
  2648   0025C2  1616               	andwf	___fltol@f1^0,f,c
  2649   0025C4  0EFF               	movlw	255
  2650   0025C6  1617               	andwf	(___fltol@f1+1)^0,f,c
  2651   0025C8  0EFF               	movlw	255
  2652   0025CA  1618               	andwf	(___fltol@f1+2)^0,f,c
  2653   0025CC  0E00               	movlw	0
  2654   0025CE  1619               	andwf	(___fltol@f1+3)^0,f,c
  2655   0025D0  0E96               	movlw	150
  2656   0025D2  5E1F               	subwf	___fltol@exp1^0,f,c
  2657   0025D4  BE1F               	btfsc	___fltol@exp1^0,7,c
  2658   0025D6  EFF1  F012         	goto	u6680
  2659   0025DA  EFEF  F012         	goto	u6681
  2660   0025DE                     u6681:
  2661   0025DE  EF07  F013         	goto	l6937
  2662   0025E2                     u6680:
  2663   0025E2  501F               	movf	___fltol@exp1^0,w,c
  2664   0025E4  0A80               	xorlw	128
  2665   0025E6  0F97               	addlw	151
  2666   0025E8  B0D8               	btfsc	status,0,c
  2667   0025EA  EFF9  F012         	goto	u6691
  2668   0025EE  EFFB  F012         	goto	u6690
  2669   0025F2                     u6691:
  2670   0025F2  EFFD  F012         	goto	l6933
  2671   0025F6                     u6690:
  2672   0025F6  EFC0  F012         	goto	l6913
  2673   0025FA                     l6933:
  2674   0025FA  90D8               	bcf	status,0,c
  2675   0025FC  3219               	rrcf	(___fltol@f1+3)^0,f,c
  2676   0025FE  3218               	rrcf	(___fltol@f1+2)^0,f,c
  2677   002600  3217               	rrcf	(___fltol@f1+1)^0,f,c
  2678   002602  3216               	rrcf	___fltol@f1^0,f,c
  2679   002604  3E1F               	incfsz	___fltol@exp1^0,f,c
  2680   002606  EFFD  F012         	goto	l6933
  2681   00260A  EF1F  F013         	goto	l6947
  2682   00260E                     l6937:
  2683   00260E  0E1F               	movlw	31
  2684   002610  641F               	cpfsgt	___fltol@exp1^0,c
  2685   002612  EF0D  F013         	goto	u6701
  2686   002616  EF0F  F013         	goto	u6700
  2687   00261A                     u6701:
  2688   00261A  EF17  F013         	goto	l6945
  2689   00261E                     u6700:
  2690   00261E  EFC0  F012         	goto	l6913
  2691   002622                     l6943:
  2692   002622  90D8               	bcf	status,0,c
  2693   002624  3616               	rlcf	___fltol@f1^0,f,c
  2694   002626  3617               	rlcf	(___fltol@f1+1)^0,f,c
  2695   002628  3618               	rlcf	(___fltol@f1+2)^0,f,c
  2696   00262A  3619               	rlcf	(___fltol@f1+3)^0,f,c
  2697   00262C  061F               	decf	___fltol@exp1^0,f,c
  2698   00262E                     l6945:
  2699   00262E  501F               	movf	___fltol@exp1^0,w,c
  2700   002630  A4D8               	btfss	status,2,c
  2701   002632  EF1D  F013         	goto	u6711
  2702   002636  EF1F  F013         	goto	u6710
  2703   00263A                     u6711:
  2704   00263A  EF11  F013         	goto	l6943
  2705   00263E                     u6710:
  2706   00263E                     l6947:
  2707   00263E  501E               	movf	___fltol@sign1^0,w,c
  2708   002640  B4D8               	btfsc	status,2,c
  2709   002642  EF25  F013         	goto	u6721
  2710   002646  EF27  F013         	goto	u6720
  2711   00264A                     u6721:
  2712   00264A  EF2F  F013         	goto	l6951
  2713   00264E                     u6720:
  2714   00264E  1E19               	comf	(___fltol@f1+3)^0,f,c
  2715   002650  1E18               	comf	(___fltol@f1+2)^0,f,c
  2716   002652  1E17               	comf	(___fltol@f1+1)^0,f,c
  2717   002654  6C16               	negf	___fltol@f1^0,c
  2718   002656  0E00               	movlw	0
  2719   002658  2217               	addwfc	(___fltol@f1+1)^0,f,c
  2720   00265A  2218               	addwfc	(___fltol@f1+2)^0,f,c
  2721   00265C  2219               	addwfc	(___fltol@f1+3)^0,f,c
  2722   00265E                     l6951:
  2723   00265E  C016  F016         	movff	___fltol@f1,?___fltol
  2724   002662  C017  F017         	movff	___fltol@f1+1,?___fltol+1
  2725   002666  C018  F018         	movff	___fltol@f1+2,?___fltol+2
  2726   00266A  C019  F019         	movff	___fltol@f1+3,?___fltol+3
  2727   00266E                     l1648:
  2728   00266E  0012               	return		;funcret
  2729   002670                     __end_of___fltol:
  2730                           	callstack 0
  2731                           
  2732 ;; *************** function ___fldiv *****************
  2733 ;; Defined at:
  2734 ;;		line 11 in file "C:\Program Files\Microchip\xc8\v2.40\pic\sources\c99\common\sprcdiv.c"
  2735 ;; Parameters:    Size  Location     Type
  2736 ;;  b               4   35[COMRAM] long 
  2737 ;;  a               4   39[COMRAM] long 
  2738 ;; Auto vars:     Size  Location     Type
  2739 ;;  grs             4   54[COMRAM] unsigned long 
  2740 ;;  rem             4   47[COMRAM] unsigned long 
  2741 ;;  new_exp         2   52[COMRAM] short 
  2742 ;;  aexp            1   59[COMRAM] unsigned char 
  2743 ;;  bexp            1   58[COMRAM] unsigned char 
  2744 ;;  sign            1   51[COMRAM] unsigned char 
  2745 ;; Return value:  Size  Location     Type
  2746 ;;                  4   35[COMRAM] unsigned char 
  2747 ;; Registers used:
  2748 ;;		wreg, status,2, status,0
  2749 ;; Tracked objects:
  2750 ;;		On entry : 0/0
  2751 ;;		On exit  : 0/0
  2752 ;;		Unchanged: 0/0
  2753 ;; Data sizes:     COMRAM   BANK0   BANK1   BANK2   BANK3   BANK4   BANK5   BANK6   BANK7   BANK8   BANK9  BANK10  BANK1
      +1  BANK12  BANK13  BANK14  BANK15
  2754 ;;      Params:         8       0       0       0       0       0       0       0       0       0       0       0       
      +0       0       0       0       0
  2755 ;;      Locals:        13       0       0       0       0       0       0       0       0       0       0       0       
      +0       0       0       0       0
  2756 ;;      Temps:          4       0       0       0       0       0       0       0       0       0       0       0       
      +0       0       0       0       0
  2757 ;;      Totals:        25       0       0       0       0       0       0       0       0       0       0       0       
      +0       0       0       0       0
  2758 ;;Total ram usage:       25 bytes
  2759 ;; Hardware stack levels used: 1
  2760 ;; Hardware stack levels required when called: 5
  2761 ;; This function calls:
  2762 ;;		Nothing
  2763 ;; This function is called by:
  2764 ;;		_EUSART_BUADRATE_Calculation
  2765 ;; This function uses a non-reentrant model
  2766 ;;
  2767                           
  2768                           	psect	text11
  2769   0019C2                     __ptext11:
  2770                           	callstack 0
  2771   0019C2                     ___fldiv:
  2772                           	callstack 22
  2773   0019C2  5027               	movf	(___fldiv@b+3)^0,w,c
  2774   0019C4  0B80               	andlw	128
  2775   0019C6  6E34               	movwf	___fldiv@sign^0,c
  2776   0019C8  5027               	movf	(___fldiv@b+3)^0,w,c
  2777   0019CA  2427               	addwf	(___fldiv@b+3)^0,w,c
  2778   0019CC  6E3B               	movwf	___fldiv@bexp^0,c
  2779   0019CE  AE26               	btfss	(___fldiv@b+2)^0,7,c
  2780   0019D0  EFEC  F00C         	goto	u6431
  2781   0019D4  EFEE  F00C         	goto	u6430
  2782   0019D8                     u6431:
  2783   0019D8  EFEF  F00C         	goto	l6779
  2784   0019DC                     u6430:
  2785   0019DC  803B               	bsf	___fldiv@bexp^0,0,c
  2786   0019DE                     l6779:
  2787   0019DE  503B               	movf	___fldiv@bexp^0,w,c
  2788   0019E0  B4D8               	btfsc	status,2,c
  2789   0019E2  EFF5  F00C         	goto	u6441
  2790   0019E6  EFF7  F00C         	goto	u6440
  2791   0019EA                     u6441:
  2792   0019EA  EF0C  F00D         	goto	l6789
  2793   0019EE                     u6440:
  2794   0019EE  283B               	incf	___fldiv@bexp^0,w,c
  2795   0019F0  A4D8               	btfss	status,2,c
  2796   0019F2  EFFD  F00C         	goto	u6451
  2797   0019F6  EFFF  F00C         	goto	u6450
  2798   0019FA                     u6451:
  2799   0019FA  EF07  F00D         	goto	l6785
  2800   0019FE                     u6450:
  2801   0019FE  0E00               	movlw	0
  2802   001A00  6E24               	movwf	___fldiv@b^0,c
  2803   001A02  0E00               	movlw	0
  2804   001A04  6E25               	movwf	(___fldiv@b+1)^0,c
  2805   001A06  0E00               	movlw	0
  2806   001A08  6E26               	movwf	(___fldiv@b+2)^0,c
  2807   001A0A  0E00               	movlw	0
  2808   001A0C  6E27               	movwf	(___fldiv@b+3)^0,c
  2809   001A0E                     l6785:
  2810   001A0E  8E26               	bsf	(___fldiv@b+2)^0,7,c
  2811   001A10  0E00               	movlw	0
  2812   001A12  6E27               	movwf	(___fldiv@b+3)^0,c
  2813   001A14  EF14  F00D         	goto	l6791
  2814   001A18                     l6789:
  2815   001A18  0E00               	movlw	0
  2816   001A1A  6E24               	movwf	___fldiv@b^0,c
  2817   001A1C  0E00               	movlw	0
  2818   001A1E  6E25               	movwf	(___fldiv@b+1)^0,c
  2819   001A20  0E00               	movlw	0
  2820   001A22  6E26               	movwf	(___fldiv@b+2)^0,c
  2821   001A24  0E00               	movlw	0
  2822   001A26  6E27               	movwf	(___fldiv@b+3)^0,c
  2823   001A28                     l6791:
  2824   001A28  502B               	movf	(___fldiv@a+3)^0,w,c
  2825   001A2A  0B80               	andlw	128
  2826   001A2C  1A34               	xorwf	___fldiv@sign^0,f,c
  2827   001A2E  502B               	movf	(___fldiv@a+3)^0,w,c
  2828   001A30  242B               	addwf	(___fldiv@a+3)^0,w,c
  2829   001A32  6E3C               	movwf	___fldiv@aexp^0,c
  2830   001A34  AE2A               	btfss	(___fldiv@a+2)^0,7,c
  2831   001A36  EF1F  F00D         	goto	u6461
  2832   001A3A  EF21  F00D         	goto	u6460
  2833   001A3E                     u6461:
  2834   001A3E  EF22  F00D         	goto	l6799
  2835   001A42                     u6460:
  2836   001A42  803C               	bsf	___fldiv@aexp^0,0,c
  2837   001A44                     l6799:
  2838   001A44  503C               	movf	___fldiv@aexp^0,w,c
  2839   001A46  B4D8               	btfsc	status,2,c
  2840   001A48  EF28  F00D         	goto	u6471
  2841   001A4C  EF2A  F00D         	goto	u6470
  2842   001A50                     u6471:
  2843   001A50  EF3F  F00D         	goto	l6809
  2844   001A54                     u6470:
  2845   001A54  283C               	incf	___fldiv@aexp^0,w,c
  2846   001A56  A4D8               	btfss	status,2,c
  2847   001A58  EF30  F00D         	goto	u6481
  2848   001A5C  EF32  F00D         	goto	u6480
  2849   001A60                     u6481:
  2850   001A60  EF3A  F00D         	goto	l6805
  2851   001A64                     u6480:
  2852   001A64  0E00               	movlw	0
  2853   001A66  6E28               	movwf	___fldiv@a^0,c
  2854   001A68  0E00               	movlw	0
  2855   001A6A  6E29               	movwf	(___fldiv@a+1)^0,c
  2856   001A6C  0E00               	movlw	0
  2857   001A6E  6E2A               	movwf	(___fldiv@a+2)^0,c
  2858   001A70  0E00               	movlw	0
  2859   001A72  6E2B               	movwf	(___fldiv@a+3)^0,c
  2860   001A74                     l6805:
  2861   001A74  8E2A               	bsf	(___fldiv@a+2)^0,7,c
  2862   001A76  0E00               	movlw	0
  2863   001A78  6E2B               	movwf	(___fldiv@a+3)^0,c
  2864   001A7A  EF47  F00D         	goto	l6811
  2865   001A7E                     l6809:
  2866   001A7E  0E00               	movlw	0
  2867   001A80  6E28               	movwf	___fldiv@a^0,c
  2868   001A82  0E00               	movlw	0
  2869   001A84  6E29               	movwf	(___fldiv@a+1)^0,c
  2870   001A86  0E00               	movlw	0
  2871   001A88  6E2A               	movwf	(___fldiv@a+2)^0,c
  2872   001A8A  0E00               	movlw	0
  2873   001A8C  6E2B               	movwf	(___fldiv@a+3)^0,c
  2874   001A8E                     l6811:
  2875   001A8E  5028               	movf	___fldiv@a^0,w,c
  2876   001A90  1029               	iorwf	(___fldiv@a+1)^0,w,c
  2877   001A92  102A               	iorwf	(___fldiv@a+2)^0,w,c
  2878   001A94  102B               	iorwf	(___fldiv@a+3)^0,w,c
  2879   001A96  A4D8               	btfss	status,2,c
  2880   001A98  EF50  F00D         	goto	u6491
  2881   001A9C  EF52  F00D         	goto	u6490
  2882   001AA0                     u6491:
  2883   001AA0  EF6A  F00D         	goto	l6823
  2884   001AA4                     u6490:
  2885   001AA4  0E00               	movlw	0
  2886   001AA6  6E24               	movwf	___fldiv@b^0,c
  2887   001AA8  0E00               	movlw	0
  2888   001AAA  6E25               	movwf	(___fldiv@b+1)^0,c
  2889   001AAC  0E00               	movlw	0
  2890   001AAE  6E26               	movwf	(___fldiv@b+2)^0,c
  2891   001AB0  0E00               	movlw	0
  2892   001AB2  6E27               	movwf	(___fldiv@b+3)^0,c
  2893   001AB4  0E80               	movlw	128
  2894   001AB6  1226               	iorwf	(___fldiv@b+2)^0,f,c
  2895   001AB8  0E7F               	movlw	127
  2896   001ABA  1227               	iorwf	(___fldiv@b+3)^0,f,c
  2897   001ABC                     l6817:
  2898   001ABC  5034               	movf	___fldiv@sign^0,w,c
  2899   001ABE  1227               	iorwf	(___fldiv@b+3)^0,f,c
  2900   001AC0  C024  F024         	movff	___fldiv@b,?___fldiv
  2901   001AC4  C025  F025         	movff	___fldiv@b+1,?___fldiv+1
  2902   001AC8  C026  F026         	movff	___fldiv@b+2,?___fldiv+2
  2903   001ACC  C027  F027         	movff	___fldiv@b+3,?___fldiv+3
  2904   001AD0  EFAD  F00E         	goto	l1933
  2905   001AD4                     l6823:
  2906   001AD4  503B               	movf	___fldiv@bexp^0,w,c
  2907   001AD6  A4D8               	btfss	status,2,c
  2908   001AD8  EF70  F00D         	goto	u6501
  2909   001ADC  EF72  F00D         	goto	u6500
  2910   001AE0                     u6501:
  2911   001AE0  EF7C  F00D         	goto	l6831
  2912   001AE4                     u6500:
  2913   001AE4  0E00               	movlw	0
  2914   001AE6  6E24               	movwf	?___fldiv^0,c
  2915   001AE8  0E00               	movlw	0
  2916   001AEA  6E25               	movwf	(?___fldiv+1)^0,c
  2917   001AEC  0E00               	movlw	0
  2918   001AEE  6E26               	movwf	(?___fldiv+2)^0,c
  2919   001AF0  0E00               	movlw	0
  2920   001AF2  6E27               	movwf	(?___fldiv+3)^0,c
  2921   001AF4  EFAD  F00E         	goto	l1933
  2922   001AF8                     l6831:
  2923   001AF8  503C               	movf	___fldiv@aexp^0,w,c
  2924   001AFA  C03B  F02C         	movff	___fldiv@bexp,??___fldiv
  2925   001AFE  6A2D               	clrf	(??___fldiv+1)^0,c
  2926   001B00  5E2C               	subwf	??___fldiv^0,f,c
  2927   001B02  0E00               	movlw	0
  2928   001B04  5A2D               	subwfb	(??___fldiv+1)^0,f,c
  2929   001B06  0E7F               	movlw	127
  2930   001B08  242C               	addwf	??___fldiv^0,w,c
  2931   001B0A  6E35               	movwf	___fldiv@new_exp^0,c
  2932   001B0C  0E00               	movlw	0
  2933   001B0E  202D               	addwfc	(??___fldiv+1)^0,w,c
  2934   001B10  6E36               	movwf	(___fldiv@new_exp+1)^0,c
  2935   001B12  C024  F030         	movff	___fldiv@b,___fldiv@rem
  2936   001B16  C025  F031         	movff	___fldiv@b+1,___fldiv@rem+1
  2937   001B1A  C026  F032         	movff	___fldiv@b+2,___fldiv@rem+2
  2938   001B1E  C027  F033         	movff	___fldiv@b+3,___fldiv@rem+3
  2939   001B22  0E00               	movlw	0
  2940   001B24  6E24               	movwf	___fldiv@b^0,c
  2941   001B26  0E00               	movlw	0
  2942   001B28  6E25               	movwf	(___fldiv@b+1)^0,c
  2943   001B2A  0E00               	movlw	0
  2944   001B2C  6E26               	movwf	(___fldiv@b+2)^0,c
  2945   001B2E  0E00               	movlw	0
  2946   001B30  6E27               	movwf	(___fldiv@b+3)^0,c
  2947   001B32  0E00               	movlw	0
  2948   001B34  6E37               	movwf	___fldiv@grs^0,c
  2949   001B36  0E00               	movlw	0
  2950   001B38  6E38               	movwf	(___fldiv@grs+1)^0,c
  2951   001B3A  0E00               	movlw	0
  2952   001B3C  6E39               	movwf	(___fldiv@grs+2)^0,c
  2953   001B3E  0E00               	movlw	0
  2954   001B40  6E3A               	movwf	(___fldiv@grs+3)^0,c
  2955   001B42  0E00               	movlw	0
  2956   001B44  6E3C               	movwf	___fldiv@aexp^0,c
  2957   001B46  EFDD  F00D         	goto	l1935
  2958   001B4A                     l6841:
  2959   001B4A  503C               	movf	___fldiv@aexp^0,w,c
  2960   001B4C  B4D8               	btfsc	status,2,c
  2961   001B4E  EFAB  F00D         	goto	u6511
  2962   001B52  EFAD  F00D         	goto	u6510
  2963   001B56                     u6511:
  2964   001B56  EFC4  F00D         	goto	l6849
  2965   001B5A                     u6510:
  2966   001B5A  90D8               	bcf	status,0,c
  2967   001B5C  3630               	rlcf	___fldiv@rem^0,f,c
  2968   001B5E  3631               	rlcf	(___fldiv@rem+1)^0,f,c
  2969   001B60  3632               	rlcf	(___fldiv@rem+2)^0,f,c
  2970   001B62  3633               	rlcf	(___fldiv@rem+3)^0,f,c
  2971   001B64  90D8               	bcf	status,0,c
  2972   001B66  3624               	rlcf	___fldiv@b^0,f,c
  2973   001B68  3625               	rlcf	(___fldiv@b+1)^0,f,c
  2974   001B6A  3626               	rlcf	(___fldiv@b+2)^0,f,c
  2975   001B6C  3627               	rlcf	(___fldiv@b+3)^0,f,c
  2976   001B6E  AE3A               	btfss	(___fldiv@grs+3)^0,7,c
  2977   001B70  EFBC  F00D         	goto	u6521
  2978   001B74  EFBE  F00D         	goto	u6520
  2979   001B78                     u6521:
  2980   001B78  EFBF  F00D         	goto	l1938
  2981   001B7C                     u6520:
  2982   001B7C  8024               	bsf	___fldiv@b^0,0,c
  2983   001B7E                     l1938:
  2984   001B7E  90D8               	bcf	status,0,c
  2985   001B80  3637               	rlcf	___fldiv@grs^0,f,c
  2986   001B82  3638               	rlcf	(___fldiv@grs+1)^0,f,c
  2987   001B84  3639               	rlcf	(___fldiv@grs+2)^0,f,c
  2988   001B86  363A               	rlcf	(___fldiv@grs+3)^0,f,c
  2989   001B88                     l6849:
  2990   001B88  5028               	movf	___fldiv@a^0,w,c
  2991   001B8A  5C30               	subwf	___fldiv@rem^0,w,c
  2992   001B8C  5029               	movf	(___fldiv@a+1)^0,w,c
  2993   001B8E  5831               	subwfb	(___fldiv@rem+1)^0,w,c
  2994   001B90  502A               	movf	(___fldiv@a+2)^0,w,c
  2995   001B92  5832               	subwfb	(___fldiv@rem+2)^0,w,c
  2996   001B94  502B               	movf	(___fldiv@a+3)^0,w,c
  2997   001B96  5833               	subwfb	(___fldiv@rem+3)^0,w,c
  2998   001B98  A0D8               	btfss	status,0,c
  2999   001B9A  EFD1  F00D         	goto	u6531
  3000   001B9E  EFD3  F00D         	goto	u6530
  3001   001BA2                     u6531:
  3002   001BA2  EFDC  F00D         	goto	l6855
  3003   001BA6                     u6530:
  3004   001BA6  8C3A               	bsf	(___fldiv@grs+3)^0,6,c
  3005   001BA8  5028               	movf	___fldiv@a^0,w,c
  3006   001BAA  5E30               	subwf	___fldiv@rem^0,f,c
  3007   001BAC  5029               	movf	(___fldiv@a+1)^0,w,c
  3008   001BAE  5A31               	subwfb	(___fldiv@rem+1)^0,f,c
  3009   001BB0  502A               	movf	(___fldiv@a+2)^0,w,c
  3010   001BB2  5A32               	subwfb	(___fldiv@rem+2)^0,f,c
  3011   001BB4  502B               	movf	(___fldiv@a+3)^0,w,c
  3012   001BB6  5A33               	subwfb	(___fldiv@rem+3)^0,f,c
  3013   001BB8                     l6855:
  3014   001BB8  2A3C               	incf	___fldiv@aexp^0,f,c
  3015   001BBA                     l1935:
  3016   001BBA  0E19               	movlw	25
  3017   001BBC  643C               	cpfsgt	___fldiv@aexp^0,c
  3018   001BBE  EFE3  F00D         	goto	u6541
  3019   001BC2  EFE5  F00D         	goto	u6540
  3020   001BC6                     u6541:
  3021   001BC6  EFA5  F00D         	goto	l6841
  3022   001BCA                     u6540:
  3023   001BCA  5030               	movf	___fldiv@rem^0,w,c
  3024   001BCC  1031               	iorwf	(___fldiv@rem+1)^0,w,c
  3025   001BCE  1032               	iorwf	(___fldiv@rem+2)^0,w,c
  3026   001BD0  1033               	iorwf	(___fldiv@rem+3)^0,w,c
  3027   001BD2  B4D8               	btfsc	status,2,c
  3028   001BD4  EFEE  F00D         	goto	u6551
  3029   001BD8  EFF0  F00D         	goto	u6550
  3030   001BDC                     u6551:
  3031   001BDC  EF08  F00E         	goto	l6867
  3032   001BE0                     u6550:
  3033   001BE0  8037               	bsf	___fldiv@grs^0,0,c
  3034   001BE2  EF08  F00E         	goto	l6867
  3035   001BE6                     l6861:
  3036   001BE6  90D8               	bcf	status,0,c
  3037   001BE8  3624               	rlcf	___fldiv@b^0,f,c
  3038   001BEA  3625               	rlcf	(___fldiv@b+1)^0,f,c
  3039   001BEC  3626               	rlcf	(___fldiv@b+2)^0,f,c
  3040   001BEE  3627               	rlcf	(___fldiv@b+3)^0,f,c
  3041   001BF0  AE3A               	btfss	(___fldiv@grs+3)^0,7,c
  3042   001BF2  EFFD  F00D         	goto	u6561
  3043   001BF6  EFFF  F00D         	goto	u6560
  3044   001BFA                     u6561:
  3045   001BFA  EF00  F00E         	goto	l1944
  3046   001BFE                     u6560:
  3047   001BFE  8024               	bsf	___fldiv@b^0,0,c
  3048   001C00                     l1944:
  3049   001C00  90D8               	bcf	status,0,c
  3050   001C02  3637               	rlcf	___fldiv@grs^0,f,c
  3051   001C04  3638               	rlcf	(___fldiv@grs+1)^0,f,c
  3052   001C06  3639               	rlcf	(___fldiv@grs+2)^0,f,c
  3053   001C08  363A               	rlcf	(___fldiv@grs+3)^0,f,c
  3054   001C0A  0635               	decf	___fldiv@new_exp^0,f,c
  3055   001C0C  A0D8               	btfss	status,0,c
  3056   001C0E  0636               	decf	(___fldiv@new_exp+1)^0,f,c
  3057   001C10                     l6867:
  3058   001C10  AE26               	btfss	(___fldiv@b+2)^0,7,c
  3059   001C12  EF0D  F00E         	goto	u6571
  3060   001C16  EF0F  F00E         	goto	u6570
  3061   001C1A                     u6571:
  3062   001C1A  EFF3  F00D         	goto	l6861
  3063   001C1E                     u6570:
  3064   001C1E  0E00               	movlw	0
  3065   001C20  6E3C               	movwf	___fldiv@aexp^0,c
  3066   001C22  AE3A               	btfss	(___fldiv@grs+3)^0,7,c
  3067   001C24  EF16  F00E         	goto	u6581
  3068   001C28  EF18  F00E         	goto	u6580
  3069   001C2C                     u6581:
  3070   001C2C  EF3C  F00E         	goto	l1946
  3071   001C30                     u6580:
  3072   001C30  0EFF               	movlw	255
  3073   001C32  1437               	andwf	___fldiv@grs^0,w,c
  3074   001C34  6E2C               	movwf	??___fldiv^0,c
  3075   001C36  0EFF               	movlw	255
  3076   001C38  1438               	andwf	(___fldiv@grs+1)^0,w,c
  3077   001C3A  6E2D               	movwf	(??___fldiv+1)^0,c
  3078   001C3C  0EFF               	movlw	255
  3079   001C3E  1439               	andwf	(___fldiv@grs+2)^0,w,c
  3080   001C40  6E2E               	movwf	(??___fldiv+2)^0,c
  3081   001C42  0E7F               	movlw	127
  3082   001C44  143A               	andwf	(___fldiv@grs+3)^0,w,c
  3083   001C46  6E2F               	movwf	(??___fldiv+3)^0,c
  3084   001C48  502C               	movf	??___fldiv^0,w,c
  3085   001C4A  102D               	iorwf	(??___fldiv+1)^0,w,c
  3086   001C4C  102E               	iorwf	(??___fldiv+2)^0,w,c
  3087   001C4E  102F               	iorwf	(??___fldiv+3)^0,w,c
  3088   001C50  B4D8               	btfsc	status,2,c
  3089   001C52  EF2D  F00E         	goto	u6591
  3090   001C56  EF2F  F00E         	goto	u6590
  3091   001C5A                     u6591:
  3092   001C5A  EF33  F00E         	goto	l1947
  3093   001C5E                     u6590:
  3094   001C5E                     l6875:
  3095   001C5E  0E01               	movlw	1
  3096   001C60  6E3C               	movwf	___fldiv@aexp^0,c
  3097   001C62  EF3C  F00E         	goto	l1946
  3098   001C66                     l1947:
  3099   001C66  A024               	btfss	___fldiv@b^0,0,c
  3100   001C68  EF38  F00E         	goto	u6601
  3101   001C6C  EF3A  F00E         	goto	u6600
  3102   001C70                     u6601:
  3103   001C70  EF3C  F00E         	goto	l1946
  3104   001C74                     u6600:
  3105   001C74  EF2F  F00E         	goto	l6875
  3106   001C78                     l1946:
  3107   001C78  503C               	movf	___fldiv@aexp^0,w,c
  3108   001C7A  B4D8               	btfsc	status,2,c
  3109   001C7C  EF42  F00E         	goto	u6611
  3110   001C80  EF44  F00E         	goto	u6610
  3111   001C84                     u6611:
  3112   001C84  EF68  F00E         	goto	l6887
  3113   001C88                     u6610:
  3114   001C88  0E01               	movlw	1
  3115   001C8A  2624               	addwf	___fldiv@b^0,f,c
  3116   001C8C  0E00               	movlw	0
  3117   001C8E  2225               	addwfc	(___fldiv@b+1)^0,f,c
  3118   001C90  2226               	addwfc	(___fldiv@b+2)^0,f,c
  3119   001C92  2227               	addwfc	(___fldiv@b+3)^0,f,c
  3120   001C94  A027               	btfss	(___fldiv@b+3)^0,0,c
  3121   001C96  EF4F  F00E         	goto	u6621
  3122   001C9A  EF51  F00E         	goto	u6620
  3123   001C9E                     u6621:
  3124   001C9E  EF68  F00E         	goto	l6887
  3125   001CA2                     u6620:
  3126   001CA2  C024  F02C         	movff	___fldiv@b,??___fldiv
  3127   001CA6  C025  F02D         	movff	___fldiv@b+1,??___fldiv+1
  3128   001CAA  C026  F02E         	movff	___fldiv@b+2,??___fldiv+2
  3129   001CAE  C027  F02F         	movff	___fldiv@b+3,??___fldiv+3
  3130   001CB2  342F               	rlcf	(??___fldiv+3)^0,w,c
  3131   001CB4  322F               	rrcf	(??___fldiv+3)^0,f,c
  3132   001CB6  322E               	rrcf	(??___fldiv+2)^0,f,c
  3133   001CB8  322D               	rrcf	(??___fldiv+1)^0,f,c
  3134   001CBA  322C               	rrcf	??___fldiv^0,f,c
  3135   001CBC  C02C  F024         	movff	??___fldiv,___fldiv@b
  3136   001CC0  C02D  F025         	movff	??___fldiv+1,___fldiv@b+1
  3137   001CC4  C02E  F026         	movff	??___fldiv+2,___fldiv@b+2
  3138   001CC8  C02F  F027         	movff	??___fldiv+3,___fldiv@b+3
  3139   001CCC  4A35               	infsnz	___fldiv@new_exp^0,f,c
  3140   001CCE  2A36               	incf	(___fldiv@new_exp+1)^0,f,c
  3141   001CD0                     l6887:
  3142   001CD0  BE36               	btfsc	(___fldiv@new_exp+1)^0,7,c
  3143   001CD2  EF73  F00E         	goto	u6631
  3144   001CD6  5036               	movf	(___fldiv@new_exp+1)^0,w,c
  3145   001CD8  E108               	bnz	u6630
  3146   001CDA  2835               	incf	___fldiv@new_exp^0,w,c
  3147   001CDC  A0D8               	btfss	status,0,c
  3148   001CDE  EF73  F00E         	goto	u6631
  3149   001CE2  EF75  F00E         	goto	u6630
  3150   001CE6                     u6631:
  3151   001CE6  EF80  F00E         	goto	l6891
  3152   001CEA                     u6630:
  3153   001CEA  0E00               	movlw	0
  3154   001CEC  6E36               	movwf	(___fldiv@new_exp+1)^0,c
  3155   001CEE  6835               	setf	___fldiv@new_exp^0,c
  3156   001CF0  0E00               	movlw	0
  3157   001CF2  6E24               	movwf	___fldiv@b^0,c
  3158   001CF4  0E00               	movlw	0
  3159   001CF6  6E25               	movwf	(___fldiv@b+1)^0,c
  3160   001CF8  0E00               	movlw	0
  3161   001CFA  6E26               	movwf	(___fldiv@b+2)^0,c
  3162   001CFC  0E00               	movlw	0
  3163   001CFE  6E27               	movwf	(___fldiv@b+3)^0,c
  3164   001D00                     l6891:
  3165   001D00  BE36               	btfsc	(___fldiv@new_exp+1)^0,7,c
  3166   001D02  EF8D  F00E         	goto	u6640
  3167   001D06  5036               	movf	(___fldiv@new_exp+1)^0,w,c
  3168   001D08  E106               	bnz	u6641
  3169   001D0A  0435               	decf	___fldiv@new_exp^0,w,c
  3170   001D0C  B0D8               	btfsc	status,0,c
  3171   001D0E  EF8B  F00E         	goto	u6641
  3172   001D12  EF8D  F00E         	goto	u6640
  3173   001D16                     u6641:
  3174   001D16  EF9B  F00E         	goto	l6895
  3175   001D1A                     u6640:
  3176   001D1A  0E00               	movlw	0
  3177   001D1C  6E36               	movwf	(___fldiv@new_exp+1)^0,c
  3178   001D1E  0E00               	movlw	0
  3179   001D20  6E35               	movwf	___fldiv@new_exp^0,c
  3180   001D22  0E00               	movlw	0
  3181   001D24  6E24               	movwf	___fldiv@b^0,c
  3182   001D26  0E00               	movlw	0
  3183   001D28  6E25               	movwf	(___fldiv@b+1)^0,c
  3184   001D2A  0E00               	movlw	0
  3185   001D2C  6E26               	movwf	(___fldiv@b+2)^0,c
  3186   001D2E  0E00               	movlw	0
  3187   001D30  6E27               	movwf	(___fldiv@b+3)^0,c
  3188   001D32  0E00               	movlw	0
  3189   001D34  6E34               	movwf	___fldiv@sign^0,c
  3190   001D36                     l6895:
  3191   001D36  C035  F03B         	movff	___fldiv@new_exp,___fldiv@bexp
  3192   001D3A  A03B               	btfss	___fldiv@bexp^0,0,c
  3193   001D3C  EFA2  F00E         	goto	u6651
  3194   001D40  EFA4  F00E         	goto	u6650
  3195   001D44                     u6651:
  3196   001D44  EFA7  F00E         	goto	l6901
  3197   001D48                     u6650:
  3198   001D48  8E26               	bsf	(___fldiv@b+2)^0,7,c
  3199   001D4A  EFA8  F00E         	goto	l6903
  3200   001D4E                     l6901:
  3201   001D4E  9E26               	bcf	(___fldiv@b+2)^0,7,c
  3202   001D50                     l6903:
  3203   001D50  90D8               	bcf	status,0,c
  3204   001D52  303B               	rrcf	___fldiv@bexp^0,w,c
  3205   001D54  6E27               	movwf	(___fldiv@b+3)^0,c
  3206   001D56  EF5E  F00D         	goto	l6817
  3207   001D5A                     l1933:
  3208   001D5A  0012               	return		;funcret
  3209   001D5C                     __end_of___fldiv:
  3210                           	callstack 0
  3211                           
  3212 ;; *************** function ___fladd *****************
  3213 ;; Defined at:
  3214 ;;		line 10 in file "C:\Program Files\Microchip\xc8\v2.40\pic\sources\c99\common\sprcadd.c"
  3215 ;; Parameters:    Size  Location     Type
  3216 ;;  b               4   60[COMRAM] unsigned char 
  3217 ;;  a               4   64[COMRAM] unsigned char 
  3218 ;; Auto vars:     Size  Location     Type
  3219 ;;  grs             1    7[BANK0 ] unsigned char 
  3220 ;;  bexp            1    6[BANK0 ] unsigned char 
  3221 ;;  aexp            1    5[BANK0 ] unsigned char 
  3222 ;;  signs           1    4[BANK0 ] unsigned char 
  3223 ;; Return value:  Size  Location     Type
  3224 ;;                  4   60[COMRAM] unsigned char 
  3225 ;; Registers used:
  3226 ;;		wreg, status,2, status,0
  3227 ;; Tracked objects:
  3228 ;;		On entry : 0/0
  3229 ;;		On exit  : 0/0
  3230 ;;		Unchanged: 0/0
  3231 ;; Data sizes:     COMRAM   BANK0   BANK1   BANK2   BANK3   BANK4   BANK5   BANK6   BANK7   BANK8   BANK9  BANK10  BANK1
      +1  BANK12  BANK13  BANK14  BANK15
  3232 ;;      Params:         8       0       0       0       0       0       0       0       0       0       0       0       
      +0       0       0       0       0
  3233 ;;      Locals:         0       4       0       0       0       0       0       0       0       0       0       0       
      +0       0       0       0       0
  3234 ;;      Temps:          0       4       0       0       0       0       0       0       0       0       0       0       
      +0       0       0       0       0
  3235 ;;      Totals:         8       8       0       0       0       0       0       0       0       0       0       0       
      +0       0       0       0       0
  3236 ;;Total ram usage:       16 bytes
  3237 ;; Hardware stack levels used: 1
  3238 ;; Hardware stack levels required when called: 5
  3239 ;; This function calls:
  3240 ;;		Nothing
  3241 ;; This function is called by:
  3242 ;;		_EUSART_BUADRATE_Calculation
  3243 ;; This function uses a non-reentrant model
  3244 ;;
  3245                           
  3246                           	psect	text12
  3247   001500                     __ptext12:
  3248                           	callstack 0
  3249   001500                     ___fladd:
  3250                           	callstack 22
  3251   001500  5040               	movf	(___fladd@b+3)^0,w,c
  3252   001502  0B80               	andlw	128
  3253   001504  0100               	movlb	0	; () banked
  3254   001506  6FD2               	movwf	___fladd@signs& (0+255),b
  3255   001508  5040               	movf	(___fladd@b+3)^0,w,c
  3256   00150A  2440               	addwf	(___fladd@b+3)^0,w,c
  3257   00150C  6FD4               	movwf	___fladd@bexp& (0+255),b
  3258   00150E                     
  3259                           ; BSR set to: 0
  3260   00150E  AE3F               	btfss	(___fladd@b+2)^0,7,c
  3261   001510  EF8C  F00A         	goto	u6041
  3262   001514  EF8E  F00A         	goto	u6040
  3263   001518                     u6041:
  3264   001518  EF8F  F00A         	goto	l6577
  3265   00151C                     u6040:
  3266   00151C                     
  3267                           ; BSR set to: 0
  3268   00151C  81D4               	bsf	___fladd@bexp& (0+255),0,b
  3269   00151E                     l6577:
  3270                           
  3271                           ; BSR set to: 0
  3272   00151E  51D4               	movf	___fladd@bexp& (0+255),w,b
  3273   001520  B4D8               	btfsc	status,2,c
  3274   001522  EF95  F00A         	goto	u6051
  3275   001526  EF97  F00A         	goto	u6050
  3276   00152A                     u6051:
  3277   00152A  EFAC  F00A         	goto	l6587
  3278   00152E                     u6050:
  3279   00152E                     
  3280                           ; BSR set to: 0
  3281   00152E  29D4               	incf	___fladd@bexp& (0+255),w,b
  3282   001530  A4D8               	btfss	status,2,c
  3283   001532  EF9D  F00A         	goto	u6061
  3284   001536  EF9F  F00A         	goto	u6060
  3285   00153A                     u6061:
  3286   00153A  EFA7  F00A         	goto	l6583
  3287   00153E                     u6060:
  3288   00153E                     
  3289                           ; BSR set to: 0
  3290   00153E  0E00               	movlw	0
  3291   001540  6E3D               	movwf	___fladd@b^0,c
  3292   001542  0E00               	movlw	0
  3293   001544  6E3E               	movwf	(___fladd@b+1)^0,c
  3294   001546  0E00               	movlw	0
  3295   001548  6E3F               	movwf	(___fladd@b+2)^0,c
  3296   00154A  0E00               	movlw	0
  3297   00154C  6E40               	movwf	(___fladd@b+3)^0,c
  3298   00154E                     l6583:
  3299                           
  3300                           ; BSR set to: 0
  3301   00154E  8E3F               	bsf	(___fladd@b+2)^0,7,c
  3302   001550                     
  3303                           ; BSR set to: 0
  3304   001550  0E00               	movlw	0
  3305   001552  6E40               	movwf	(___fladd@b+3)^0,c
  3306   001554  EFB4  F00A         	goto	l6589
  3307   001558                     l6587:
  3308                           
  3309                           ; BSR set to: 0
  3310   001558  0E00               	movlw	0
  3311   00155A  6E3D               	movwf	___fladd@b^0,c
  3312   00155C  0E00               	movlw	0
  3313   00155E  6E3E               	movwf	(___fladd@b+1)^0,c
  3314   001560  0E00               	movlw	0
  3315   001562  6E3F               	movwf	(___fladd@b+2)^0,c
  3316   001564  0E00               	movlw	0
  3317   001566  6E40               	movwf	(___fladd@b+3)^0,c
  3318   001568                     l6589:
  3319                           
  3320                           ; BSR set to: 0
  3321   001568  5044               	movf	(___fladd@a+3)^0,w,c
  3322   00156A  0B80               	andlw	128
  3323   00156C  6FD3               	movwf	___fladd@aexp& (0+255),b
  3324   00156E                     
  3325                           ; BSR set to: 0
  3326   00156E  51D2               	movf	___fladd@signs& (0+255),w,b
  3327   001570  19D3               	xorwf	___fladd@aexp& (0+255),w,b
  3328   001572  B4D8               	btfsc	status,2,c
  3329   001574  EFBE  F00A         	goto	u6071
  3330   001578  EFC0  F00A         	goto	u6070
  3331   00157C                     u6071:
  3332   00157C  EFC1  F00A         	goto	l6595
  3333   001580                     u6070:
  3334   001580                     
  3335                           ; BSR set to: 0
  3336   001580  8DD2               	bsf	___fladd@signs& (0+255),6,b
  3337   001582                     l6595:
  3338                           
  3339                           ; BSR set to: 0
  3340   001582  5044               	movf	(___fladd@a+3)^0,w,c
  3341   001584  2444               	addwf	(___fladd@a+3)^0,w,c
  3342   001586  6FD3               	movwf	___fladd@aexp& (0+255),b
  3343   001588                     
  3344                           ; BSR set to: 0
  3345   001588  AE43               	btfss	(___fladd@a+2)^0,7,c
  3346   00158A  EFC9  F00A         	goto	u6081
  3347   00158E  EFCB  F00A         	goto	u6080
  3348   001592                     u6081:
  3349   001592  EFCC  F00A         	goto	l6601
  3350   001596                     u6080:
  3351   001596                     
  3352                           ; BSR set to: 0
  3353   001596  81D3               	bsf	___fladd@aexp& (0+255),0,b
  3354   001598                     l6601:
  3355                           
  3356                           ; BSR set to: 0
  3357   001598  51D3               	movf	___fladd@aexp& (0+255),w,b
  3358   00159A  B4D8               	btfsc	status,2,c
  3359   00159C  EFD2  F00A         	goto	u6091
  3360   0015A0  EFD4  F00A         	goto	u6090
  3361   0015A4                     u6091:
  3362   0015A4  EFE9  F00A         	goto	l6611
  3363   0015A8                     u6090:
  3364   0015A8                     
  3365                           ; BSR set to: 0
  3366   0015A8  29D3               	incf	___fladd@aexp& (0+255),w,b
  3367   0015AA  A4D8               	btfss	status,2,c
  3368   0015AC  EFDA  F00A         	goto	u6101
  3369   0015B0  EFDC  F00A         	goto	u6100
  3370   0015B4                     u6101:
  3371   0015B4  EFE4  F00A         	goto	l6607
  3372   0015B8                     u6100:
  3373   0015B8                     
  3374                           ; BSR set to: 0
  3375   0015B8  0E00               	movlw	0
  3376   0015BA  6E41               	movwf	___fladd@a^0,c
  3377   0015BC  0E00               	movlw	0
  3378   0015BE  6E42               	movwf	(___fladd@a+1)^0,c
  3379   0015C0  0E00               	movlw	0
  3380   0015C2  6E43               	movwf	(___fladd@a+2)^0,c
  3381   0015C4  0E00               	movlw	0
  3382   0015C6  6E44               	movwf	(___fladd@a+3)^0,c
  3383   0015C8                     l6607:
  3384                           
  3385                           ; BSR set to: 0
  3386   0015C8  8E43               	bsf	(___fladd@a+2)^0,7,c
  3387   0015CA                     
  3388                           ; BSR set to: 0
  3389   0015CA  0E00               	movlw	0
  3390   0015CC  6E44               	movwf	(___fladd@a+3)^0,c
  3391   0015CE  EFF1  F00A         	goto	l6613
  3392   0015D2                     l6611:
  3393                           
  3394                           ; BSR set to: 0
  3395   0015D2  0E00               	movlw	0
  3396   0015D4  6E41               	movwf	___fladd@a^0,c
  3397   0015D6  0E00               	movlw	0
  3398   0015D8  6E42               	movwf	(___fladd@a+1)^0,c
  3399   0015DA  0E00               	movlw	0
  3400   0015DC  6E43               	movwf	(___fladd@a+2)^0,c
  3401   0015DE  0E00               	movlw	0
  3402   0015E0  6E44               	movwf	(___fladd@a+3)^0,c
  3403   0015E2                     l6613:
  3404                           
  3405                           ; BSR set to: 0
  3406   0015E2  51D4               	movf	___fladd@bexp& (0+255),w,b
  3407   0015E4  5DD3               	subwf	___fladd@aexp& (0+255),w,b
  3408   0015E6  B0D8               	btfsc	status,0,c
  3409   0015E8  EFF8  F00A         	goto	u6111
  3410   0015EC  EFFA  F00A         	goto	u6110
  3411   0015F0                     u6111:
  3412   0015F0  EF21  F00B         	goto	l6649
  3413   0015F4                     u6110:
  3414   0015F4                     
  3415                           ; BSR set to: 0
  3416   0015F4  ADD2               	btfss	___fladd@signs& (0+255),6,b
  3417   0015F6  EFFF  F00A         	goto	u6121
  3418   0015FA  EF01  F00B         	goto	u6120
  3419   0015FE                     u6121:
  3420   0015FE  EF03  F00B         	goto	l6619
  3421   001602                     u6120:
  3422   001602                     
  3423                           ; BSR set to: 0
  3424   001602  0E80               	movlw	128
  3425   001604  1BD2               	xorwf	___fladd@signs& (0+255),f,b
  3426   001606                     l6619:
  3427                           
  3428                           ; BSR set to: 0
  3429   001606  C0D4  F0D5         	movff	___fladd@bexp,___fladd@grs
  3430   00160A                     
  3431                           ; BSR set to: 0
  3432   00160A  C0D3  F0D4         	movff	___fladd@aexp,___fladd@bexp
  3433   00160E                     
  3434                           ; BSR set to: 0
  3435   00160E  C0D5  F0D3         	movff	___fladd@grs,___fladd@aexp
  3436   001612                     
  3437                           ; BSR set to: 0
  3438   001612  C03D  F0D5         	movff	___fladd@b,___fladd@grs
  3439   001616                     
  3440                           ; BSR set to: 0
  3441   001616  C041  F03D         	movff	___fladd@a,___fladd@b
  3442   00161A                     
  3443                           ; BSR set to: 0
  3444   00161A  C0D5  F041         	movff	___fladd@grs,___fladd@a
  3445   00161E                     
  3446                           ; BSR set to: 0
  3447   00161E  C03E  F0D5         	movff	___fladd@b+1,___fladd@grs
  3448   001622                     
  3449                           ; BSR set to: 0
  3450   001622  C042  F03E         	movff	___fladd@a+1,___fladd@b+1
  3451   001626                     
  3452                           ; BSR set to: 0
  3453   001626  C0D5  F042         	movff	___fladd@grs,___fladd@a+1
  3454   00162A                     
  3455                           ; BSR set to: 0
  3456   00162A  C03F  F0D5         	movff	___fladd@b+2,___fladd@grs
  3457   00162E                     
  3458                           ; BSR set to: 0
  3459   00162E  C043  F03F         	movff	___fladd@a+2,___fladd@b+2
  3460   001632                     
  3461                           ; BSR set to: 0
  3462   001632  C0D5  F043         	movff	___fladd@grs,___fladd@a+2
  3463   001636                     
  3464                           ; BSR set to: 0
  3465   001636  C040  F0D5         	movff	___fladd@b+3,___fladd@grs
  3466   00163A                     
  3467                           ; BSR set to: 0
  3468   00163A  C044  F040         	movff	___fladd@a+3,___fladd@b+3
  3469   00163E                     
  3470                           ; BSR set to: 0
  3471   00163E  C0D5  F044         	movff	___fladd@grs,___fladd@a+3
  3472   001642                     l6649:
  3473                           
  3474                           ; BSR set to: 0
  3475   001642  0E00               	movlw	0
  3476   001644  6FD5               	movwf	___fladd@grs& (0+255),b
  3477   001646                     
  3478                           ; BSR set to: 0
  3479   001646  51D4               	movf	___fladd@bexp& (0+255),w,b
  3480   001648  C0D3  F0CE         	movff	___fladd@aexp,??___fladd
  3481   00164C  6BCF               	clrf	(??___fladd+1)& (0+255),b
  3482   00164E  5FCE               	subwf	??___fladd& (0+255),f,b
  3483   001650  0E00               	movlw	0
  3484   001652  5BCF               	subwfb	(??___fladd+1)& (0+255),f,b
  3485   001654  BFCF               	btfsc	(??___fladd+1)& (0+255),7,b
  3486   001656  EF36  F00B         	goto	u6131
  3487   00165A  51CF               	movf	(??___fladd+1)& (0+255),w,b
  3488   00165C  E109               	bnz	u6130
  3489   00165E  0E1A               	movlw	26
  3490   001660  5DCE               	subwf	??___fladd& (0+255),w,b
  3491   001662  A0D8               	btfss	status,0,c
  3492   001664  EF36  F00B         	goto	u6131
  3493   001668  EF38  F00B         	goto	u6130
  3494   00166C                     u6131:
  3495   00166C  EF6F  F00B         	goto	l1880
  3496   001670                     u6130:
  3497   001670                     
  3498                           ; BSR set to: 0
  3499   001670  503D               	movf	___fladd@b^0,w,c
  3500   001672  103E               	iorwf	(___fladd@b+1)^0,w,c
  3501   001674  103F               	iorwf	(___fladd@b+2)^0,w,c
  3502   001676  1040               	iorwf	(___fladd@b+3)^0,w,c
  3503   001678  A4D8               	btfss	status,2,c
  3504   00167A  EF41  F00B         	goto	u6141
  3505   00167E  EF44  F00B         	goto	u6140
  3506   001682                     u6141:
  3507   001682  0E01               	movlw	1
  3508   001684  EF45  F00B         	goto	u6150
  3509   001688                     u6140:
  3510   001688  0E00               	movlw	0
  3511   00168A                     u6150:
  3512   00168A  6FD5               	movwf	___fladd@grs& (0+255),b
  3513   00168C                     
  3514                           ; BSR set to: 0
  3515   00168C  0E00               	movlw	0
  3516   00168E  6E3D               	movwf	___fladd@b^0,c
  3517   001690  0E00               	movlw	0
  3518   001692  6E3E               	movwf	(___fladd@b+1)^0,c
  3519   001694  0E00               	movlw	0
  3520   001696  6E3F               	movwf	(___fladd@b+2)^0,c
  3521   001698  0E00               	movlw	0
  3522   00169A  6E40               	movwf	(___fladd@b+3)^0,c
  3523   00169C                     
  3524                           ; BSR set to: 0
  3525   00169C  C0D3  F0D4         	movff	___fladd@aexp,___fladd@bexp
  3526   0016A0  EF78  F00B         	goto	l1879
  3527   0016A4                     l1881:
  3528                           
  3529                           ; BSR set to: 0
  3530   0016A4  A1D5               	btfss	___fladd@grs& (0+255),0,b
  3531   0016A6  EF57  F00B         	goto	u6161
  3532   0016AA  EF59  F00B         	goto	u6160
  3533   0016AE                     u6161:
  3534   0016AE  EF5F  F00B         	goto	l6661
  3535   0016B2                     u6160:
  3536   0016B2                     
  3537                           ; BSR set to: 0
  3538   0016B2  90D8               	bcf	status,0,c
  3539   0016B4  31D5               	rrcf	___fladd@grs& (0+255),w,b
  3540   0016B6  0901               	iorlw	1
  3541   0016B8  6FD5               	movwf	___fladd@grs& (0+255),b
  3542   0016BA  EF61  F00B         	goto	l6663
  3543   0016BE                     l6661:
  3544                           
  3545                           ; BSR set to: 0
  3546   0016BE  90D8               	bcf	status,0,c
  3547   0016C0  33D5               	rrcf	___fladd@grs& (0+255),f,b
  3548   0016C2                     l6663:
  3549                           
  3550                           ; BSR set to: 0
  3551   0016C2  A03D               	btfss	___fladd@b^0,0,c
  3552   0016C4  EF66  F00B         	goto	u6171
  3553   0016C8  EF68  F00B         	goto	u6170
  3554   0016CC                     u6171:
  3555   0016CC  EF69  F00B         	goto	l6667
  3556   0016D0                     u6170:
  3557   0016D0                     
  3558                           ; BSR set to: 0
  3559   0016D0  8FD5               	bsf	___fladd@grs& (0+255),7,b
  3560   0016D2                     l6667:
  3561                           
  3562                           ; BSR set to: 0
  3563   0016D2  3440               	rlcf	(___fladd@b+3)^0,w,c
  3564   0016D4  3240               	rrcf	(___fladd@b+3)^0,f,c
  3565   0016D6  323F               	rrcf	(___fladd@b+2)^0,f,c
  3566   0016D8  323E               	rrcf	(___fladd@b+1)^0,f,c
  3567   0016DA  323D               	rrcf	___fladd@b^0,f,c
  3568   0016DC                     
  3569                           ; BSR set to: 0
  3570   0016DC  2BD4               	incf	___fladd@bexp& (0+255),f,b
  3571   0016DE                     l1880:
  3572                           
  3573                           ; BSR set to: 0
  3574   0016DE  51D3               	movf	___fladd@aexp& (0+255),w,b
  3575   0016E0  5DD4               	subwf	___fladd@bexp& (0+255),w,b
  3576   0016E2  A0D8               	btfss	status,0,c
  3577   0016E4  EF76  F00B         	goto	u6181
  3578   0016E8  EF78  F00B         	goto	u6180
  3579   0016EC                     u6181:
  3580   0016EC  EF52  F00B         	goto	l1881
  3581   0016F0                     u6180:
  3582   0016F0                     l1879:
  3583                           
  3584                           ; BSR set to: 0
  3585   0016F0  BDD2               	btfsc	___fladd@signs& (0+255),6,b
  3586   0016F2  EF7D  F00B         	goto	u6191
  3587   0016F6  EF7F  F00B         	goto	u6190
  3588   0016FA                     u6191:
  3589   0016FA  EFBF  F00B         	goto	l6695
  3590   0016FE                     u6190:
  3591   0016FE                     
  3592                           ; BSR set to: 0
  3593   0016FE  51D4               	movf	___fladd@bexp& (0+255),w,b
  3594   001700  A4D8               	btfss	status,2,c
  3595   001702  EF85  F00B         	goto	u6201
  3596   001706  EF87  F00B         	goto	u6200
  3597   00170A                     u6201:
  3598   00170A  EF91  F00B         	goto	l6677
  3599   00170E                     u6200:
  3600   00170E                     
  3601                           ; BSR set to: 0
  3602   00170E  0E00               	movlw	0
  3603   001710  6E3D               	movwf	?___fladd^0,c
  3604   001712  0E00               	movlw	0
  3605   001714  6E3E               	movwf	(?___fladd+1)^0,c
  3606   001716  0E00               	movlw	0
  3607   001718  6E3F               	movwf	(?___fladd+2)^0,c
  3608   00171A  0E00               	movlw	0
  3609   00171C  6E40               	movwf	(?___fladd+3)^0,c
  3610   00171E  EFE0  F00C         	goto	l1888
  3611   001722                     l6677:
  3612                           
  3613                           ; BSR set to: 0
  3614   001722  5041               	movf	___fladd@a^0,w,c
  3615   001724  263D               	addwf	___fladd@b^0,f,c
  3616   001726  5042               	movf	(___fladd@a+1)^0,w,c
  3617   001728  223E               	addwfc	(___fladd@b+1)^0,f,c
  3618   00172A  5043               	movf	(___fladd@a+2)^0,w,c
  3619   00172C  223F               	addwfc	(___fladd@b+2)^0,f,c
  3620   00172E  5044               	movf	(___fladd@a+3)^0,w,c
  3621   001730  2240               	addwfc	(___fladd@b+3)^0,f,c
  3622   001732                     
  3623                           ; BSR set to: 0
  3624   001732  A040               	btfss	(___fladd@b+3)^0,0,c
  3625   001734  EF9E  F00B         	goto	u6211
  3626   001738  EFA0  F00B         	goto	u6210
  3627   00173C                     u6211:
  3628   00173C  EF4C  F00C         	goto	l6731
  3629   001740                     u6210:
  3630   001740                     
  3631                           ; BSR set to: 0
  3632   001740  A1D5               	btfss	___fladd@grs& (0+255),0,b
  3633   001742  EFA5  F00B         	goto	u6221
  3634   001746  EFA7  F00B         	goto	u6220
  3635   00174A                     u6221:
  3636   00174A  EFAD  F00B         	goto	l6685
  3637   00174E                     u6220:
  3638   00174E                     
  3639                           ; BSR set to: 0
  3640   00174E  90D8               	bcf	status,0,c
  3641   001750  31D5               	rrcf	___fladd@grs& (0+255),w,b
  3642   001752  0901               	iorlw	1
  3643   001754  6FD5               	movwf	___fladd@grs& (0+255),b
  3644   001756  EFAF  F00B         	goto	l6687
  3645   00175A                     l6685:
  3646                           
  3647                           ; BSR set to: 0
  3648   00175A  90D8               	bcf	status,0,c
  3649   00175C  33D5               	rrcf	___fladd@grs& (0+255),f,b
  3650   00175E                     l6687:
  3651                           
  3652                           ; BSR set to: 0
  3653   00175E  A03D               	btfss	___fladd@b^0,0,c
  3654   001760  EFB4  F00B         	goto	u6231
  3655   001764  EFB6  F00B         	goto	u6230
  3656   001768                     u6231:
  3657   001768  EFB7  F00B         	goto	l6691
  3658   00176C                     u6230:
  3659   00176C                     
  3660                           ; BSR set to: 0
  3661   00176C  8FD5               	bsf	___fladd@grs& (0+255),7,b
  3662   00176E                     l6691:
  3663                           
  3664                           ; BSR set to: 0
  3665   00176E  3440               	rlcf	(___fladd@b+3)^0,w,c
  3666   001770  3240               	rrcf	(___fladd@b+3)^0,f,c
  3667   001772  323F               	rrcf	(___fladd@b+2)^0,f,c
  3668   001774  323E               	rrcf	(___fladd@b+1)^0,f,c
  3669   001776  323D               	rrcf	___fladd@b^0,f,c
  3670   001778                     
  3671                           ; BSR set to: 0
  3672   001778  2BD4               	incf	___fladd@bexp& (0+255),f,b
  3673   00177A  EF4C  F00C         	goto	l6731
  3674   00177E                     l6695:
  3675                           
  3676                           ; BSR set to: 0
  3677   00177E  5041               	movf	___fladd@a^0,w,c
  3678   001780  5C3D               	subwf	___fladd@b^0,w,c
  3679   001782  5042               	movf	(___fladd@a+1)^0,w,c
  3680   001784  583E               	subwfb	(___fladd@b+1)^0,w,c
  3681   001786  5043               	movf	(___fladd@a+2)^0,w,c
  3682   001788  583F               	subwfb	(___fladd@b+2)^0,w,c
  3683   00178A  5040               	movf	(___fladd@b+3)^0,w,c
  3684   00178C  0A80               	xorlw	128
  3685   00178E  6FCE               	movwf	??___fladd& (0+255),b
  3686   001790  5044               	movf	(___fladd@a+3)^0,w,c
  3687   001792  0A80               	xorlw	128
  3688   001794  59CE               	subwfb	??___fladd& (0+255),w,b
  3689   001796  B0D8               	btfsc	status,0,c
  3690   001798  EFD0  F00B         	goto	u6241
  3691   00179C  EFD2  F00B         	goto	u6240
  3692   0017A0                     u6241:
  3693   0017A0  EFFD  F00B         	goto	l6705
  3694   0017A4                     u6240:
  3695   0017A4                     
  3696                           ; BSR set to: 0
  3697   0017A4  503D               	movf	___fladd@b^0,w,c
  3698   0017A6  5C41               	subwf	___fladd@a^0,w,c
  3699   0017A8  6FCE               	movwf	??___fladd& (0+255),b
  3700   0017AA  503E               	movf	(___fladd@b+1)^0,w,c
  3701   0017AC  5842               	subwfb	(___fladd@a+1)^0,w,c
  3702   0017AE  6FCF               	movwf	(??___fladd+1)& (0+255),b
  3703   0017B0  503F               	movf	(___fladd@b+2)^0,w,c
  3704   0017B2  5843               	subwfb	(___fladd@a+2)^0,w,c
  3705   0017B4  6FD0               	movwf	(??___fladd+2)& (0+255),b
  3706   0017B6  5040               	movf	(___fladd@b+3)^0,w,c
  3707   0017B8  5844               	subwfb	(___fladd@a+3)^0,w,c
  3708   0017BA  6FD1               	movwf	(??___fladd+3)& (0+255),b
  3709   0017BC  0EFF               	movlw	255
  3710   0017BE  25CE               	addwf	??___fladd& (0+255),w,b
  3711   0017C0  6E3D               	movwf	___fladd@b^0,c
  3712   0017C2  0EFF               	movlw	255
  3713   0017C4  21CF               	addwfc	(??___fladd+1)& (0+255),w,b
  3714   0017C6  6E3E               	movwf	(___fladd@b+1)^0,c
  3715   0017C8  0EFF               	movlw	255
  3716   0017CA  21D0               	addwfc	(??___fladd+2)& (0+255),w,b
  3717   0017CC  6E3F               	movwf	(___fladd@b+2)^0,c
  3718   0017CE  0EFF               	movlw	255
  3719   0017D0  21D1               	addwfc	(??___fladd+3)& (0+255),w,b
  3720   0017D2  6E40               	movwf	(___fladd@b+3)^0,c
  3721   0017D4  0E80               	movlw	128
  3722   0017D6  1BD2               	xorwf	___fladd@signs& (0+255),f,b
  3723   0017D8                     
  3724                           ; BSR set to: 0
  3725   0017D8  6DD5               	negf	___fladd@grs& (0+255),b
  3726   0017DA                     
  3727                           ; BSR set to: 0
  3728   0017DA  51D5               	movf	___fladd@grs& (0+255),w,b
  3729   0017DC  A4D8               	btfss	status,2,c
  3730   0017DE  EFF3  F00B         	goto	u6251
  3731   0017E2  EFF5  F00B         	goto	u6250
  3732   0017E6                     u6251:
  3733   0017E6  EF05  F00C         	goto	l1896
  3734   0017EA                     u6250:
  3735   0017EA                     
  3736                           ; BSR set to: 0
  3737   0017EA  0E01               	movlw	1
  3738   0017EC  263D               	addwf	___fladd@b^0,f,c
  3739   0017EE  0E00               	movlw	0
  3740   0017F0  223E               	addwfc	(___fladd@b+1)^0,f,c
  3741   0017F2  223F               	addwfc	(___fladd@b+2)^0,f,c
  3742   0017F4  2240               	addwfc	(___fladd@b+3)^0,f,c
  3743   0017F6  EF05  F00C         	goto	l1896
  3744   0017FA                     l6705:
  3745                           
  3746                           ; BSR set to: 0
  3747   0017FA  5041               	movf	___fladd@a^0,w,c
  3748   0017FC  5E3D               	subwf	___fladd@b^0,f,c
  3749   0017FE  5042               	movf	(___fladd@a+1)^0,w,c
  3750   001800  5A3E               	subwfb	(___fladd@b+1)^0,f,c
  3751   001802  5043               	movf	(___fladd@a+2)^0,w,c
  3752   001804  5A3F               	subwfb	(___fladd@b+2)^0,f,c
  3753   001806  5044               	movf	(___fladd@a+3)^0,w,c
  3754   001808  5A40               	subwfb	(___fladd@b+3)^0,f,c
  3755   00180A                     l1896:
  3756                           
  3757                           ; BSR set to: 0
  3758   00180A  503D               	movf	___fladd@b^0,w,c
  3759   00180C  103E               	iorwf	(___fladd@b+1)^0,w,c
  3760   00180E  103F               	iorwf	(___fladd@b+2)^0,w,c
  3761   001810  1040               	iorwf	(___fladd@b+3)^0,w,c
  3762   001812  A4D8               	btfss	status,2,c
  3763   001814  EF0E  F00C         	goto	u6261
  3764   001818  EF10  F00C         	goto	u6260
  3765   00181C                     u6261:
  3766   00181C  EF45  F00C         	goto	l6729
  3767   001820                     u6260:
  3768   001820                     
  3769                           ; BSR set to: 0
  3770   001820  51D5               	movf	___fladd@grs& (0+255),w,b
  3771   001822  A4D8               	btfss	status,2,c
  3772   001824  EF16  F00C         	goto	u6271
  3773   001828  EF18  F00C         	goto	u6270
  3774   00182C                     u6271:
  3775   00182C  EF45  F00C         	goto	l6729
  3776   001830                     u6270:
  3777   001830                     
  3778                           ; BSR set to: 0
  3779   001830  0E00               	movlw	0
  3780   001832  6E3D               	movwf	?___fladd^0,c
  3781   001834  0E00               	movlw	0
  3782   001836  6E3E               	movwf	(?___fladd+1)^0,c
  3783   001838  0E00               	movlw	0
  3784   00183A  6E3F               	movwf	(?___fladd+2)^0,c
  3785   00183C  0E00               	movlw	0
  3786   00183E  6E40               	movwf	(?___fladd+3)^0,c
  3787   001840  EFE0  F00C         	goto	l1888
  3788   001844                     l6713:
  3789                           
  3790                           ; BSR set to: 0
  3791   001844  90D8               	bcf	status,0,c
  3792   001846  363D               	rlcf	___fladd@b^0,f,c
  3793   001848  363E               	rlcf	(___fladd@b+1)^0,f,c
  3794   00184A  363F               	rlcf	(___fladd@b+2)^0,f,c
  3795   00184C  3640               	rlcf	(___fladd@b+3)^0,f,c
  3796   00184E                     
  3797                           ; BSR set to: 0
  3798   00184E  AFD5               	btfss	___fladd@grs& (0+255),7,b
  3799   001850  EF2C  F00C         	goto	u6281
  3800   001854  EF2E  F00C         	goto	u6280
  3801   001858                     u6281:
  3802   001858  EF2F  F00C         	goto	l6719
  3803   00185C                     u6280:
  3804   00185C                     
  3805                           ; BSR set to: 0
  3806   00185C  803D               	bsf	___fladd@b^0,0,c
  3807   00185E                     l6719:
  3808                           
  3809                           ; BSR set to: 0
  3810   00185E  A1D5               	btfss	___fladd@grs& (0+255),0,b
  3811   001860  EF34  F00C         	goto	u6291
  3812   001864  EF36  F00C         	goto	u6290
  3813   001868                     u6291:
  3814   001868  EF3A  F00C         	goto	l6723
  3815   00186C                     u6290:
  3816   00186C                     
  3817                           ; BSR set to: 0
  3818   00186C  80D8               	bsf	status,0,c
  3819   00186E  37D5               	rlcf	___fladd@grs& (0+255),f,b
  3820   001870  EF3C  F00C         	goto	l6725
  3821   001874                     l6723:
  3822                           
  3823                           ; BSR set to: 0
  3824   001874  90D8               	bcf	status,0,c
  3825   001876  37D5               	rlcf	___fladd@grs& (0+255),f,b
  3826   001878                     l6725:
  3827                           
  3828                           ; BSR set to: 0
  3829   001878  51D4               	movf	___fladd@bexp& (0+255),w,b
  3830   00187A  B4D8               	btfsc	status,2,c
  3831   00187C  EF42  F00C         	goto	u6301
  3832   001880  EF44  F00C         	goto	u6300
  3833   001884                     u6301:
  3834   001884  EF45  F00C         	goto	l6729
  3835   001888                     u6300:
  3836   001888                     
  3837                           ; BSR set to: 0
  3838   001888  07D4               	decf	___fladd@bexp& (0+255),f,b
  3839   00188A                     l6729:
  3840                           
  3841                           ; BSR set to: 0
  3842   00188A  AE3F               	btfss	(___fladd@b+2)^0,7,c
  3843   00188C  EF4A  F00C         	goto	u6311
  3844   001890  EF4C  F00C         	goto	u6310
  3845   001894                     u6311:
  3846   001894  EF22  F00C         	goto	l6713
  3847   001898                     u6310:
  3848   001898                     l6731:
  3849                           
  3850                           ; BSR set to: 0
  3851   001898  0E00               	movlw	0
  3852   00189A  6FD3               	movwf	___fladd@aexp& (0+255),b
  3853   00189C                     
  3854                           ; BSR set to: 0
  3855   00189C  AFD5               	btfss	___fladd@grs& (0+255),7,b
  3856   00189E  EF53  F00C         	goto	u6321
  3857   0018A2  EF55  F00C         	goto	u6320
  3858   0018A6                     u6321:
  3859   0018A6  EF6D  F00C         	goto	l1905
  3860   0018AA                     u6320:
  3861   0018AA                     
  3862                           ; BSR set to: 0
  3863   0018AA  C0D5  F0CE         	movff	___fladd@grs,??___fladd
  3864   0018AE  0E7F               	movlw	127
  3865   0018B0  17CE               	andwf	??___fladd& (0+255),f,b
  3866   0018B2  B4D8               	btfsc	status,2,c
  3867   0018B4  EF5E  F00C         	goto	u6331
  3868   0018B8  EF60  F00C         	goto	u6330
  3869   0018BC                     u6331:
  3870   0018BC  EF64  F00C         	goto	l1906
  3871   0018C0                     u6330:
  3872   0018C0                     l6737:
  3873                           
  3874                           ; BSR set to: 0
  3875   0018C0  0E01               	movlw	1
  3876   0018C2  6FD3               	movwf	___fladd@aexp& (0+255),b
  3877   0018C4  EF6D  F00C         	goto	l1905
  3878   0018C8                     l1906:
  3879                           
  3880                           ; BSR set to: 0
  3881   0018C8  A03D               	btfss	___fladd@b^0,0,c
  3882   0018CA  EF69  F00C         	goto	u6341
  3883   0018CE  EF6B  F00C         	goto	u6340
  3884   0018D2                     u6341:
  3885   0018D2  EF6D  F00C         	goto	l1905
  3886   0018D6                     u6340:
  3887   0018D6  EF60  F00C         	goto	l6737
  3888   0018DA                     l1905:
  3889                           
  3890                           ; BSR set to: 0
  3891   0018DA  51D3               	movf	___fladd@aexp& (0+255),w,b
  3892   0018DC  B4D8               	btfsc	status,2,c
  3893   0018DE  EF73  F00C         	goto	u6351
  3894   0018E2  EF75  F00C         	goto	u6350
  3895   0018E6                     u6351:
  3896   0018E6  EFA0  F00C         	goto	l6749
  3897   0018EA                     u6350:
  3898   0018EA                     
  3899                           ; BSR set to: 0
  3900   0018EA  0E01               	movlw	1
  3901   0018EC  263D               	addwf	___fladd@b^0,f,c
  3902   0018EE  0E00               	movlw	0
  3903   0018F0  223E               	addwfc	(___fladd@b+1)^0,f,c
  3904   0018F2  223F               	addwfc	(___fladd@b+2)^0,f,c
  3905   0018F4  2240               	addwfc	(___fladd@b+3)^0,f,c
  3906   0018F6                     
  3907                           ; BSR set to: 0
  3908   0018F6  A040               	btfss	(___fladd@b+3)^0,0,c
  3909   0018F8  EF80  F00C         	goto	u6361
  3910   0018FC  EF82  F00C         	goto	u6360
  3911   001900                     u6361:
  3912   001900  EFA0  F00C         	goto	l6749
  3913   001904                     u6360:
  3914   001904                     
  3915                           ; BSR set to: 0
  3916   001904  C03D  F0CE         	movff	___fladd@b,??___fladd
  3917   001908  C03E  F0CF         	movff	___fladd@b+1,??___fladd+1
  3918   00190C  C03F  F0D0         	movff	___fladd@b+2,??___fladd+2
  3919   001910  C040  F0D1         	movff	___fladd@b+3,??___fladd+3
  3920   001914  35D1               	rlcf	(??___fladd+3)& (0+255),w,b
  3921   001916  33D1               	rrcf	(??___fladd+3)& (0+255),f,b
  3922   001918  33D0               	rrcf	(??___fladd+2)& (0+255),f,b
  3923   00191A  33CF               	rrcf	(??___fladd+1)& (0+255),f,b
  3924   00191C  33CE               	rrcf	??___fladd& (0+255),f,b
  3925   00191E  C0CE  F03D         	movff	??___fladd,___fladd@b
  3926   001922  C0CF  F03E         	movff	??___fladd+1,___fladd@b+1
  3927   001926  C0D0  F03F         	movff	??___fladd+2,___fladd@b+2
  3928   00192A  C0D1  F040         	movff	??___fladd+3,___fladd@b+3
  3929   00192E  29D4               	incf	___fladd@bexp& (0+255),w,b
  3930   001930  B4D8               	btfsc	status,2,c
  3931   001932  EF9D  F00C         	goto	u6371
  3932   001936  EF9F  F00C         	goto	u6370
  3933   00193A                     u6371:
  3934   00193A  EFA0  F00C         	goto	l6749
  3935   00193E                     u6370:
  3936   00193E                     
  3937                           ; BSR set to: 0
  3938   00193E  2BD4               	incf	___fladd@bexp& (0+255),f,b
  3939   001940                     l6749:
  3940                           
  3941                           ; BSR set to: 0
  3942   001940  29D4               	incf	___fladd@bexp& (0+255),w,b
  3943   001942  B4D8               	btfsc	status,2,c
  3944   001944  EFA6  F00C         	goto	u6381
  3945   001948  EFA8  F00C         	goto	u6380
  3946   00194C                     u6381:
  3947   00194C  EFB0  F00C         	goto	l6753
  3948   001950                     u6380:
  3949   001950                     
  3950                           ; BSR set to: 0
  3951   001950  51D4               	movf	___fladd@bexp& (0+255),w,b
  3952   001952  A4D8               	btfss	status,2,c
  3953   001954  EFAE  F00C         	goto	u6391
  3954   001958  EFB0  F00C         	goto	u6390
  3955   00195C                     u6391:
  3956   00195C  EFC2  F00C         	goto	l6757
  3957   001960                     u6390:
  3958   001960                     l6753:
  3959                           
  3960                           ; BSR set to: 0
  3961   001960  0E00               	movlw	0
  3962   001962  6E3D               	movwf	___fladd@b^0,c
  3963   001964  0E00               	movlw	0
  3964   001966  6E3E               	movwf	(___fladd@b+1)^0,c
  3965   001968  0E00               	movlw	0
  3966   00196A  6E3F               	movwf	(___fladd@b+2)^0,c
  3967   00196C  0E00               	movlw	0
  3968   00196E  6E40               	movwf	(___fladd@b+3)^0,c
  3969   001970  51D4               	movf	___fladd@bexp& (0+255),w,b
  3970   001972  A4D8               	btfss	status,2,c
  3971   001974  EFBE  F00C         	goto	u6401
  3972   001978  EFC0  F00C         	goto	u6400
  3973   00197C                     u6401:
  3974   00197C  EFC2  F00C         	goto	l6757
  3975   001980                     u6400:
  3976   001980                     
  3977                           ; BSR set to: 0
  3978   001980  0E00               	movlw	0
  3979   001982  6FD2               	movwf	___fladd@signs& (0+255),b
  3980   001984                     l6757:
  3981                           
  3982                           ; BSR set to: 0
  3983   001984  A1D4               	btfss	___fladd@bexp& (0+255),0,b
  3984   001986  EFC7  F00C         	goto	u6411
  3985   00198A  EFC9  F00C         	goto	u6410
  3986   00198E                     u6411:
  3987   00198E  EFCC  F00C         	goto	l6761
  3988   001992                     u6410:
  3989   001992                     
  3990                           ; BSR set to: 0
  3991   001992  8E3F               	bsf	(___fladd@b+2)^0,7,c
  3992   001994  EFCD  F00C         	goto	l6763
  3993   001998                     l6761:
  3994                           
  3995                           ; BSR set to: 0
  3996   001998  9E3F               	bcf	(___fladd@b+2)^0,7,c
  3997   00199A                     l6763:
  3998                           
  3999                           ; BSR set to: 0
  4000   00199A  90D8               	bcf	status,0,c
  4001   00199C  31D4               	rrcf	___fladd@bexp& (0+255),w,b
  4002   00199E  6E40               	movwf	(___fladd@b+3)^0,c
  4003   0019A0                     
  4004                           ; BSR set to: 0
  4005   0019A0  AFD2               	btfss	___fladd@signs& (0+255),7,b
  4006   0019A2  EFD5  F00C         	goto	u6421
  4007   0019A6  EFD7  F00C         	goto	u6420
  4008   0019AA                     u6421:
  4009   0019AA  EFD8  F00C         	goto	l6769
  4010   0019AE                     u6420:
  4011   0019AE                     
  4012                           ; BSR set to: 0
  4013   0019AE  8E40               	bsf	(___fladd@b+3)^0,7,c
  4014   0019B0                     l6769:
  4015                           
  4016                           ; BSR set to: 0
  4017   0019B0  C03D  F03D         	movff	___fladd@b,?___fladd
  4018   0019B4  C03E  F03E         	movff	___fladd@b+1,?___fladd+1
  4019   0019B8  C03F  F03F         	movff	___fladd@b+2,?___fladd+2
  4020   0019BC  C040  F040         	movff	___fladd@b+3,?___fladd+3
  4021   0019C0                     l1888:
  4022                           
  4023                           ; BSR set to: 0
  4024   0019C0  0012               	return		;funcret
  4025   0019C2                     __end_of___fladd:
  4026                           	callstack 0
  4027                           
  4028 ;; *************** function _InterruptManager *****************
  4029 ;; Defined at:
  4030 ;;		line 26 in file "MCAL_Layer/Interrupt/hal_manager_interrupt.c"
  4031 ;; Parameters:    Size  Location     Type
  4032 ;;		None
  4033 ;; Auto vars:     Size  Location     Type
  4034 ;;		None
  4035 ;; Return value:  Size  Location     Type
  4036 ;;                  1    wreg      void 
  4037 ;; Registers used:
  4038 ;;		wreg, fsr2l, fsr2h, status,2, status,0, pcl, pclath, pclatu, tosl, prodl, prodh, cstack
  4039 ;; Tracked objects:
  4040 ;;		On entry : 0/0
  4041 ;;		On exit  : 0/0
  4042 ;;		Unchanged: 0/0
  4043 ;; Data sizes:     COMRAM   BANK0   BANK1   BANK2   BANK3   BANK4   BANK5   BANK6   BANK7   BANK8   BANK9  BANK10  BANK1
      +1  BANK12  BANK13  BANK14  BANK15
  4044 ;;      Params:         0       0       0       0       0       0       0       0       0       0       0       0       
      +0       0       0       0       0
  4045 ;;      Locals:         0       0       0       0       0       0       0       0       0       0       0       0       
      +0       0       0       0       0
  4046 ;;      Temps:          6       0       0       0       0       0       0       0       0       0       0       0       
      +0       0       0       0       0
  4047 ;;      Totals:         6       0       0       0       0       0       0       0       0       0       0       0       
      +0       0       0       0       0
  4048 ;;Total ram usage:        6 bytes
  4049 ;; Hardware stack levels used: 1
  4050 ;; Hardware stack levels required when called: 4
  4051 ;; This function calls:
  4052 ;;		_ADC_ISR
  4053 ;;		_CCP1_ISR
  4054 ;;		_CCP2_ISR
  4055 ;;		_EUSART_RX_ISR
  4056 ;;		_EUSART_TX_ISR
  4057 ;;		_INT0_ISR
  4058 ;;		_INT1_ISR
  4059 ;;		_INT2_ISR
  4060 ;;		_RB4_ISR
  4061 ;;		_RB5_ISR
  4062 ;;		_RB6_ISR
  4063 ;;		_RB7_ISR
  4064 ;;		_TIMER0_ISR
  4065 ;;		_TIMER1_ISR
  4066 ;;		_TIMER2_ISR
  4067 ;;		_TIMER3_ISR
  4068 ;; This function is called by:
  4069 ;;		Interrupt level 2
  4070 ;; This function uses a non-reentrant model
  4071 ;;
  4072                           
  4073                           	psect	intcode
  4074   000008                     __pintcode:
  4075                           	callstack 0
  4076   000008                     _InterruptManager:
  4077                           	callstack 22
  4078                           
  4079                           ; BSR set to: 0
  4080                           ;incstack = 0
  4081   000008  8269               	bsf	int$flags,1,c	;set compiler interrupt flag (level 2)
  4082   00000A  EDAE  F00E         	call	int_func,f	;refresh shadow registers
  4083                           
  4084                           	psect	intcode_body
  4085   001D5C                     __pintcode_body:
  4086                           	callstack 22
  4087   001D5C                     int_func:
  4088                           	callstack 22
  4089   001D5C  0006               	pop		; remove dummy address from shadow register refresh
  4090   001D5E  CFFA F010          	movff	pclath,??_InterruptManager
  4091   001D62  CFFB F011          	movff	pclatu,??_InterruptManager+1
  4092   001D66  CFD9 F012          	movff	fsr2l,??_InterruptManager+2
  4093   001D6A  CFDA F013          	movff	fsr2h,??_InterruptManager+3
  4094   001D6E  CFF3 F014          	movff	prodl,??_InterruptManager+4
  4095   001D72  CFF4 F015          	movff	prodh,??_InterruptManager+5
  4096   001D76                     
  4097                           ;MCAL_Layer/Interrupt/hal_manager_interrupt.c: 27:     if((INTCONbits.INT0IE == 1) && (I
      +                          NTCONbits.INT0IF == 1)) INT0_ISR();
  4098   001D76  A8F2               	btfss	242,4,c	;volatile
  4099   001D78  EFC0  F00E         	goto	i2u556_41
  4100   001D7C  EFC2  F00E         	goto	i2u556_40
  4101   001D80                     i2u556_41:
  4102   001D80  EFCB  F00E         	goto	i2l6307
  4103   001D84                     i2u556_40:
  4104   001D84  A2F2               	btfss	242,1,c	;volatile
  4105   001D86  EFC7  F00E         	goto	i2u557_41
  4106   001D8A  EFC9  F00E         	goto	i2u557_40
  4107   001D8E                     i2u557_41:
  4108   001D8E  EFCB  F00E         	goto	i2l6307
  4109   001D92                     i2u557_40:
  4110   001D92  EC0A  F016         	call	_INT0_ISR	;wreg free
  4111   001D96                     i2l6307:
  4112                           
  4113                           ;MCAL_Layer/Interrupt/hal_manager_interrupt.c: 28:     if((INTCON3bits.INT1IE == 1) && (
      +                          INTCON3bits.INT1IF == 1)) INT1_ISR();
  4114   001D96  A6F0               	btfss	240,3,c	;volatile
  4115   001D98  EFD0  F00E         	goto	i2u558_41
  4116   001D9C  EFD2  F00E         	goto	i2u558_40
  4117   001DA0                     i2u558_41:
  4118   001DA0  EFDB  F00E         	goto	i2l6313
  4119   001DA4                     i2u558_40:
  4120   001DA4  A0F0               	btfss	240,0,c	;volatile
  4121   001DA6  EFD7  F00E         	goto	i2u559_41
  4122   001DAA  EFD9  F00E         	goto	i2u559_40
  4123   001DAE                     i2u559_41:
  4124   001DAE  EFDB  F00E         	goto	i2l6313
  4125   001DB2                     i2u559_40:
  4126   001DB2  EC08  F016         	call	_INT1_ISR	;wreg free
  4127   001DB6                     i2l6313:
  4128                           
  4129                           ;MCAL_Layer/Interrupt/hal_manager_interrupt.c: 29:     if((INTCON3bits.INT2IE == 1) && (
      +                          INTCON3bits.INT2IF == 1)) INT2_ISR();
  4130   001DB6  A8F0               	btfss	240,4,c	;volatile
  4131   001DB8  EFE0  F00E         	goto	i2u560_41
  4132   001DBC  EFE2  F00E         	goto	i2u560_40
  4133   001DC0                     i2u560_41:
  4134   001DC0  EFEB  F00E         	goto	i2l6319
  4135   001DC4                     i2u560_40:
  4136   001DC4  A2F0               	btfss	240,1,c	;volatile
  4137   001DC6  EFE7  F00E         	goto	i2u561_41
  4138   001DCA  EFE9  F00E         	goto	i2u561_40
  4139   001DCE                     i2u561_41:
  4140   001DCE  EFEB  F00E         	goto	i2l6319
  4141   001DD2                     i2u561_40:
  4142   001DD2  EC06  F016         	call	_INT2_ISR	;wreg free
  4143   001DD6                     i2l6319:
  4144                           
  4145                           ;MCAL_Layer/Interrupt/hal_manager_interrupt.c: 30:     if((INTCONbits.RBIE == 1) && (INT
      +                          CONbits.RBIF == 1) && (PORTBbits.RB4 == 1)) RB4_ISR();
  4146   001DD6  A6F2               	btfss	242,3,c	;volatile
  4147   001DD8  EFF0  F00E         	goto	i2u562_41
  4148   001DDC  EFF2  F00E         	goto	i2u562_40
  4149   001DE0                     i2u562_41:
  4150   001DE0  EF02  F00F         	goto	i2l6327
  4151   001DE4                     i2u562_40:
  4152   001DE4  A0F2               	btfss	242,0,c	;volatile
  4153   001DE6  EFF7  F00E         	goto	i2u563_41
  4154   001DEA  EFF9  F00E         	goto	i2u563_40
  4155   001DEE                     i2u563_41:
  4156   001DEE  EF02  F00F         	goto	i2l6327
  4157   001DF2                     i2u563_40:
  4158   001DF2  A881               	btfss	129,4,c	;volatile
  4159   001DF4  EFFE  F00E         	goto	i2u564_41
  4160   001DF8  EF00  F00F         	goto	i2u564_40
  4161   001DFC                     i2u564_41:
  4162   001DFC  EF02  F00F         	goto	i2l6327
  4163   001E00                     i2u564_40:
  4164   001E00  EC04  F016         	call	_RB4_ISR	;wreg free
  4165   001E04                     i2l6327:
  4166                           
  4167                           ;MCAL_Layer/Interrupt/hal_manager_interrupt.c: 31:     if((INTCONbits.RBIE == 1) && (INT
      +                          CONbits.RBIF == 1) && (PORTBbits.RB5 == 1)) RB5_ISR();
  4168   001E04  A6F2               	btfss	242,3,c	;volatile
  4169   001E06  EF07  F00F         	goto	i2u565_41
  4170   001E0A  EF09  F00F         	goto	i2u565_40
  4171   001E0E                     i2u565_41:
  4172   001E0E  EF19  F00F         	goto	i2l6335
  4173   001E12                     i2u565_40:
  4174   001E12  A0F2               	btfss	242,0,c	;volatile
  4175   001E14  EF0E  F00F         	goto	i2u566_41
  4176   001E18  EF10  F00F         	goto	i2u566_40
  4177   001E1C                     i2u566_41:
  4178   001E1C  EF19  F00F         	goto	i2l6335
  4179   001E20                     i2u566_40:
  4180   001E20  AA81               	btfss	129,5,c	;volatile
  4181   001E22  EF15  F00F         	goto	i2u567_41
  4182   001E26  EF17  F00F         	goto	i2u567_40
  4183   001E2A                     i2u567_41:
  4184   001E2A  EF19  F00F         	goto	i2l6335
  4185   001E2E                     i2u567_40:
  4186   001E2E  EC02  F016         	call	_RB5_ISR	;wreg free
  4187   001E32                     i2l6335:
  4188                           
  4189                           ;MCAL_Layer/Interrupt/hal_manager_interrupt.c: 32:     if((INTCONbits.RBIE == 1) && (INT
      +                          CONbits.RBIF == 1) && (PORTBbits.RB6 == 1)) RB6_ISR();
  4190   001E32  A6F2               	btfss	242,3,c	;volatile
  4191   001E34  EF1E  F00F         	goto	i2u568_41
  4192   001E38  EF20  F00F         	goto	i2u568_40
  4193   001E3C                     i2u568_41:
  4194   001E3C  EF30  F00F         	goto	i2l6343
  4195   001E40                     i2u568_40:
  4196   001E40  A0F2               	btfss	242,0,c	;volatile
  4197   001E42  EF25  F00F         	goto	i2u569_41
  4198   001E46  EF27  F00F         	goto	i2u569_40
  4199   001E4A                     i2u569_41:
  4200   001E4A  EF30  F00F         	goto	i2l6343
  4201   001E4E                     i2u569_40:
  4202   001E4E  AC81               	btfss	129,6,c	;volatile
  4203   001E50  EF2C  F00F         	goto	i2u570_41
  4204   001E54  EF2E  F00F         	goto	i2u570_40
  4205   001E58                     i2u570_41:
  4206   001E58  EF30  F00F         	goto	i2l6343
  4207   001E5C                     i2u570_40:
  4208   001E5C  EC00  F016         	call	_RB6_ISR	;wreg free
  4209   001E60                     i2l6343:
  4210                           
  4211                           ;MCAL_Layer/Interrupt/hal_manager_interrupt.c: 33:     if((INTCONbits.RBIE == 1) && (INT
      +                          CONbits.RBIF == 1) && (PORTBbits.RB7 == 1)) RB7_ISR();
  4212   001E60  A6F2               	btfss	242,3,c	;volatile
  4213   001E62  EF35  F00F         	goto	i2u571_41
  4214   001E66  EF37  F00F         	goto	i2u571_40
  4215   001E6A                     i2u571_41:
  4216   001E6A  EF47  F00F         	goto	i2l6351
  4217   001E6E                     i2u571_40:
  4218   001E6E  A0F2               	btfss	242,0,c	;volatile
  4219   001E70  EF3C  F00F         	goto	i2u572_41
  4220   001E74  EF3E  F00F         	goto	i2u572_40
  4221   001E78                     i2u572_41:
  4222   001E78  EF47  F00F         	goto	i2l6351
  4223   001E7C                     i2u572_40:
  4224   001E7C  AE81               	btfss	129,7,c	;volatile
  4225   001E7E  EF43  F00F         	goto	i2u573_41
  4226   001E82  EF45  F00F         	goto	i2u573_40
  4227   001E86                     i2u573_41:
  4228   001E86  EF47  F00F         	goto	i2l6351
  4229   001E8A                     i2u573_40:
  4230   001E8A  ECFE  F015         	call	_RB7_ISR	;wreg free
  4231   001E8E                     i2l6351:
  4232                           
  4233                           ;MCAL_Layer/Interrupt/hal_manager_interrupt.c: 34:     if((PIE1bits.ADIE == 1) && (PIR1b
      +                          its.ADIF == 1)) ADC_ISR();
  4234   001E8E  AC9D               	btfss	157,6,c	;volatile
  4235   001E90  EF4C  F00F         	goto	i2u574_41
  4236   001E94  EF4E  F00F         	goto	i2u574_40
  4237   001E98                     i2u574_41:
  4238   001E98  EF57  F00F         	goto	i2l6357
  4239   001E9C                     i2u574_40:
  4240   001E9C  AC9E               	btfss	158,6,c	;volatile
  4241   001E9E  EF53  F00F         	goto	i2u575_41
  4242   001EA2  EF55  F00F         	goto	i2u575_40
  4243   001EA6                     i2u575_41:
  4244   001EA6  EF57  F00F         	goto	i2l6357
  4245   001EAA                     i2u575_40:
  4246   001EAA  EC10  F016         	call	_ADC_ISR	;wreg free
  4247   001EAE                     i2l6357:
  4248                           
  4249                           ;MCAL_Layer/Interrupt/hal_manager_interrupt.c: 35:     if((INTCONbits.TMR0IE == 1) && (I
      +                          NTCONbits.TMR0IF == 1)) TIMER0_ISR();
  4250   001EAE  AAF2               	btfss	242,5,c	;volatile
  4251   001EB0  EF5C  F00F         	goto	i2u576_41
  4252   001EB4  EF5E  F00F         	goto	i2u576_40
  4253   001EB8                     i2u576_41:
  4254   001EB8  EF67  F00F         	goto	i2l6363
  4255   001EBC                     i2u576_40:
  4256   001EBC  A4F2               	btfss	242,2,c	;volatile
  4257   001EBE  EF63  F00F         	goto	i2u577_41
  4258   001EC2  EF65  F00F         	goto	i2u577_40
  4259   001EC6                     i2u577_41:
  4260   001EC6  EF67  F00F         	goto	i2l6363
  4261   001ECA                     i2u577_40:
  4262   001ECA  ECF4  F015         	call	_TIMER0_ISR	;wreg free
  4263   001ECE                     i2l6363:
  4264                           
  4265                           ;MCAL_Layer/Interrupt/hal_manager_interrupt.c: 36:     if((PIE1bits.TMR1IE == 1) && (PIR
      +                          1bits.TMR1IF == 1)) TIMER1_ISR();
  4266   001ECE  A09D               	btfss	157,0,c	;volatile
  4267   001ED0  EF6C  F00F         	goto	i2u578_41
  4268   001ED4  EF6E  F00F         	goto	i2u578_40
  4269   001ED8                     i2u578_41:
  4270   001ED8  EF77  F00F         	goto	i2l6369
  4271   001EDC                     i2u578_40:
  4272   001EDC  A09E               	btfss	158,0,c	;volatile
  4273   001EDE  EF73  F00F         	goto	i2u579_41
  4274   001EE2  EF75  F00F         	goto	i2u579_40
  4275   001EE6                     i2u579_41:
  4276   001EE6  EF77  F00F         	goto	i2l6369
  4277   001EEA                     i2u579_40:
  4278   001EEA  ECEE  F015         	call	_TIMER1_ISR	;wreg free
  4279   001EEE                     i2l6369:
  4280                           
  4281                           ;MCAL_Layer/Interrupt/hal_manager_interrupt.c: 37:     if((PIE1bits.TMR2IE == 1) && (PIR
      +                          1bits.TMR2IF == 1)) TIMER2_ISR();
  4282   001EEE  A29D               	btfss	157,1,c	;volatile
  4283   001EF0  EF7C  F00F         	goto	i2u580_41
  4284   001EF4  EF7E  F00F         	goto	i2u580_40
  4285   001EF8                     i2u580_41:
  4286   001EF8  EF87  F00F         	goto	i2l6375
  4287   001EFC                     i2u580_40:
  4288   001EFC  A29E               	btfss	158,1,c	;volatile
  4289   001EFE  EF83  F00F         	goto	i2u581_41
  4290   001F02  EF85  F00F         	goto	i2u581_40
  4291   001F06                     i2u581_41:
  4292   001F06  EF87  F00F         	goto	i2l6375
  4293   001F0A                     i2u581_40:
  4294   001F0A  ECFA  F015         	call	_TIMER2_ISR	;wreg free
  4295   001F0E                     i2l6375:
  4296                           
  4297                           ;MCAL_Layer/Interrupt/hal_manager_interrupt.c: 38:     if((PIE2bits.TMR3IE == 1) && (PIR
      +                          2bits.TMR3IF == 1)) TIMER3_ISR();
  4298   001F0E  A2A0               	btfss	160,1,c	;volatile
  4299   001F10  EF8C  F00F         	goto	i2u582_41
  4300   001F14  EF8E  F00F         	goto	i2u582_40
  4301   001F18                     i2u582_41:
  4302   001F18  EF97  F00F         	goto	i2l6381
  4303   001F1C                     i2u582_40:
  4304   001F1C  A2A1               	btfss	161,1,c	;volatile
  4305   001F1E  EF93  F00F         	goto	i2u583_41
  4306   001F22  EF95  F00F         	goto	i2u583_40
  4307   001F26                     i2u583_41:
  4308   001F26  EF97  F00F         	goto	i2l6381
  4309   001F2A                     i2u583_40:
  4310   001F2A  ECE8  F015         	call	_TIMER3_ISR	;wreg free
  4311   001F2E                     i2l6381:
  4312                           
  4313                           ;MCAL_Layer/Interrupt/hal_manager_interrupt.c: 39:     if((PIE1bits.CCP1IE == 1) && (PIR
      +                          1bits.CCP1IF == 1)) CCP1_ISR();
  4314   001F2E  A49D               	btfss	157,2,c	;volatile
  4315   001F30  EF9C  F00F         	goto	i2u584_41
  4316   001F34  EF9E  F00F         	goto	i2u584_40
  4317   001F38                     i2u584_41:
  4318   001F38  EFA7  F00F         	goto	i2l6387
  4319   001F3C                     i2u584_40:
  4320   001F3C  A49E               	btfss	158,2,c	;volatile
  4321   001F3E  EFA3  F00F         	goto	i2u585_41
  4322   001F42  EFA5  F00F         	goto	i2u585_40
  4323   001F46                     i2u585_41:
  4324   001F46  EFA7  F00F         	goto	i2l6387
  4325   001F4A                     i2u585_40:
  4326   001F4A  EC0E  F016         	call	_CCP1_ISR	;wreg free
  4327   001F4E                     i2l6387:
  4328                           
  4329                           ;MCAL_Layer/Interrupt/hal_manager_interrupt.c: 40:     if((PIE2bits.CCP2IE == 1) && (PIR
      +                          2bits.CCP2IF == 1)) CCP2_ISR();
  4330   001F4E  A0A0               	btfss	160,0,c	;volatile
  4331   001F50  EFAC  F00F         	goto	i2u586_41
  4332   001F54  EFAE  F00F         	goto	i2u586_40
  4333   001F58                     i2u586_41:
  4334   001F58  EFB7  F00F         	goto	i2l6393
  4335   001F5C                     i2u586_40:
  4336   001F5C  A0A1               	btfss	161,0,c	;volatile
  4337   001F5E  EFB3  F00F         	goto	i2u587_41
  4338   001F62  EFB5  F00F         	goto	i2u587_40
  4339   001F66                     i2u587_41:
  4340   001F66  EFB7  F00F         	goto	i2l6393
  4341   001F6A                     i2u587_40:
  4342   001F6A  EC0C  F016         	call	_CCP2_ISR	;wreg free
  4343   001F6E                     i2l6393:
  4344                           
  4345                           ;MCAL_Layer/Interrupt/hal_manager_interrupt.c: 41:     if((PIE1bits.TXIE == 1) && (PIR1b
      +                          its.TXIF == 1)) EUSART_TX_ISR();
  4346   001F6E  A89D               	btfss	157,4,c	;volatile
  4347   001F70  EFBC  F00F         	goto	i2u588_41
  4348   001F74  EFBE  F00F         	goto	i2u588_40
  4349   001F78                     i2u588_41:
  4350   001F78  EFC7  F00F         	goto	i2l6399
  4351   001F7C                     i2u588_40:
  4352   001F7C  A89E               	btfss	158,4,c	;volatile
  4353   001F7E  EFC3  F00F         	goto	i2u589_41
  4354   001F82  EFC5  F00F         	goto	i2u589_40
  4355   001F86                     i2u589_41:
  4356   001F86  EFC7  F00F         	goto	i2l6399
  4357   001F8A                     i2u589_40:
  4358   001F8A  ECB0  F015         	call	_EUSART_TX_ISR	;wreg free
  4359   001F8E                     i2l6399:
  4360                           
  4361                           ;MCAL_Layer/Interrupt/hal_manager_interrupt.c: 42:     if((PIE1bits.RCIE == 1) && (PIR1b
      +                          its.RCIF == 1)) EUSART_RX_ISR();
  4362   001F8E  AA9D               	btfss	157,5,c	;volatile
  4363   001F90  EFCC  F00F         	goto	i2u590_41
  4364   001F94  EFCE  F00F         	goto	i2u590_40
  4365   001F98                     i2u590_41:
  4366   001F98  EFD7  F00F         	goto	i2l1102
  4367   001F9C                     i2u590_40:
  4368   001F9C  AA9E               	btfss	158,5,c	;volatile
  4369   001F9E  EFD3  F00F         	goto	i2u591_41
  4370   001FA2  EFD5  F00F         	goto	i2u591_40
  4371   001FA6                     i2u591_41:
  4372   001FA6  EFD7  F00F         	goto	i2l1102
  4373   001FAA                     i2u591_40:
  4374   001FAA  EC98  F015         	call	_EUSART_RX_ISR	;wreg free
  4375   001FAE                     i2l1102:
  4376   001FAE  C015  FFF4         	movff	??_InterruptManager+5,prodh
  4377   001FB2  C014  FFF3         	movff	??_InterruptManager+4,prodl
  4378   001FB6  C013  FFDA         	movff	??_InterruptManager+3,fsr2h
  4379   001FBA  C012  FFD9         	movff	??_InterruptManager+2,fsr2l
  4380   001FBE  C011  FFFB         	movff	??_InterruptManager+1,pclatu
  4381   001FC2  C010  FFFA         	movff	??_InterruptManager,pclath
  4382   001FC6  9269               	bcf	int$flags,1,c	;clear compiler interrupt flag (level 2)
  4383   001FC8  0011               	retfie		f
  4384   001FCA                     __end_of_InterruptManager:
  4385                           	callstack 0
  4386                           
  4387 ;; *************** function _TIMER3_ISR *****************
  4388 ;; Defined at:
  4389 ;;		line 135 in file "MCAL_Layer/TIMER3/timer3.c"
  4390 ;; Parameters:    Size  Location     Type
  4391 ;;		None
  4392 ;; Auto vars:     Size  Location     Type
  4393 ;;		None
  4394 ;; Return value:  Size  Location     Type
  4395 ;;                  1    wreg      void 
  4396 ;; Registers used:
  4397 ;;		wreg, status,2
  4398 ;; Tracked objects:
  4399 ;;		On entry : 0/0
  4400 ;;		On exit  : 0/0
  4401 ;;		Unchanged: 0/0
  4402 ;; Data sizes:     COMRAM   BANK0   BANK1   BANK2   BANK3   BANK4   BANK5   BANK6   BANK7   BANK8   BANK9  BANK10  BANK1
      +1  BANK12  BANK13  BANK14  BANK15
  4403 ;;      Params:         0       0       0       0       0       0       0       0       0       0       0       0       
      +0       0       0       0       0
  4404 ;;      Locals:         0       0       0       0       0       0       0       0       0       0       0       0       
      +0       0       0       0       0
  4405 ;;      Temps:          0       0       0       0       0       0       0       0       0       0       0       0       
      +0       0       0       0       0
  4406 ;;      Totals:         0       0       0       0       0       0       0       0       0       0       0       0       
      +0       0       0       0       0
  4407 ;;Total ram usage:        0 bytes
  4408 ;; Hardware stack levels used: 1
  4409 ;; This function calls:
  4410 ;;		Nothing
  4411 ;; This function is called by:
  4412 ;;		_InterruptManager
  4413 ;; This function uses a non-reentrant model
  4414 ;;
  4415                           
  4416                           	psect	text14
  4417   002BD0                     __ptext14:
  4418                           	callstack 0
  4419   002BD0                     _TIMER3_ISR:
  4420                           	callstack 25
  4421   002BD0                     
  4422                           ;MCAL_Layer/TIMER3/timer3.c: 136:     (PIR2bits.TMR3IF = 0);
  4423   002BD0  92A1               	bcf	161,1,c	;volatile
  4424   002BD2                     
  4425                           ;MCAL_Layer/TIMER3/timer3.c: 137:     TMR3H = (timer3_preload_value) >> 8;
  4426   002BD2  5046               	movf	(_timer3_preload_value+1)^0,w,c
  4427   002BD4  6EB3               	movwf	179,c	;volatile
  4428   002BD6                     
  4429                           ;MCAL_Layer/TIMER3/timer3.c: 138:     TMR3L = (uint8)(timer3_preload_value);
  4430   002BD6  C045  FFB2         	movff	_timer3_preload_value,4018	;volatile
  4431   002BDA  0012               	return		;funcret
  4432   002BDC                     __end_of_TIMER3_ISR:
  4433                           	callstack 0
  4434                           
  4435 ;; *************** function _TIMER2_ISR *****************
  4436 ;; Defined at:
  4437 ;;		line 127 in file "MCAL_Layer/TIMER2/timer2.c"
  4438 ;; Parameters:    Size  Location     Type
  4439 ;;		None
  4440 ;; Auto vars:     Size  Location     Type
  4441 ;;		None
  4442 ;; Return value:  Size  Location     Type
  4443 ;;                  1    wreg      void 
  4444 ;; Registers used:
  4445 ;;		None
  4446 ;; Tracked objects:
  4447 ;;		On entry : 0/0
  4448 ;;		On exit  : 0/0
  4449 ;;		Unchanged: 0/0
  4450 ;; Data sizes:     COMRAM   BANK0   BANK1   BANK2   BANK3   BANK4   BANK5   BANK6   BANK7   BANK8   BANK9  BANK10  BANK1
      +1  BANK12  BANK13  BANK14  BANK15
  4451 ;;      Params:         0       0       0       0       0       0       0       0       0       0       0       0       
      +0       0       0       0       0
  4452 ;;      Locals:         0       0       0       0       0       0       0       0       0       0       0       0       
      +0       0       0       0       0
  4453 ;;      Temps:          0       0       0       0       0       0       0       0       0       0       0       0       
      +0       0       0       0       0
  4454 ;;      Totals:         0       0       0       0       0       0       0       0       0       0       0       0       
      +0       0       0       0       0
  4455 ;;Total ram usage:        0 bytes
  4456 ;; Hardware stack levels used: 1
  4457 ;; This function calls:
  4458 ;;		Nothing
  4459 ;; This function is called by:
  4460 ;;		_InterruptManager
  4461 ;; This function uses a non-reentrant model
  4462 ;;
  4463                           
  4464                           	psect	text15
  4465   002BF4                     __ptext15:
  4466                           	callstack 0
  4467   002BF4                     _TIMER2_ISR:
  4468                           	callstack 25
  4469   002BF4                     
  4470                           ;MCAL_Layer/TIMER2/timer2.c: 128:     (PIR1bits.TMR2IF = 0);
  4471   002BF4  929E               	bcf	158,1,c	;volatile
  4472                           
  4473                           ;MCAL_Layer/TIMER2/timer2.c: 129:     TMR2 = (uint8)(timer2_preload_value);
  4474   002BF6  C055  FFCC         	movff	_timer2_preload_value,4044	;volatile
  4475   002BFA  0012               	return		;funcret
  4476   002BFC                     __end_of_TIMER2_ISR:
  4477                           	callstack 0
  4478                           
  4479 ;; *************** function _TIMER1_ISR *****************
  4480 ;; Defined at:
  4481 ;;		line 136 in file "hal_timer1.c"
  4482 ;; Parameters:    Size  Location     Type
  4483 ;;		None
  4484 ;; Auto vars:     Size  Location     Type
  4485 ;;		None
  4486 ;; Return value:  Size  Location     Type
  4487 ;;                  1    wreg      void 
  4488 ;; Registers used:
  4489 ;;		wreg, status,2
  4490 ;; Tracked objects:
  4491 ;;		On entry : 0/0
  4492 ;;		On exit  : 0/0
  4493 ;;		Unchanged: 0/0
  4494 ;; Data sizes:     COMRAM   BANK0   BANK1   BANK2   BANK3   BANK4   BANK5   BANK6   BANK7   BANK8   BANK9  BANK10  BANK1
      +1  BANK12  BANK13  BANK14  BANK15
  4495 ;;      Params:         0       0       0       0       0       0       0       0       0       0       0       0       
      +0       0       0       0       0
  4496 ;;      Locals:         0       0       0       0       0       0       0       0       0       0       0       0       
      +0       0       0       0       0
  4497 ;;      Temps:          0       0       0       0       0       0       0       0       0       0       0       0       
      +0       0       0       0       0
  4498 ;;      Totals:         0       0       0       0       0       0       0       0       0       0       0       0       
      +0       0       0       0       0
  4499 ;;Total ram usage:        0 bytes
  4500 ;; Hardware stack levels used: 1
  4501 ;; This function calls:
  4502 ;;		Nothing
  4503 ;; This function is called by:
  4504 ;;		_InterruptManager
  4505 ;; This function uses a non-reentrant model
  4506 ;;
  4507                           
  4508                           	psect	text16
  4509   002BDC                     __ptext16:
  4510                           	callstack 0
  4511   002BDC                     _TIMER1_ISR:
  4512                           	callstack 25
  4513   002BDC                     
  4514                           ;hal_timer1.c: 137:     (PIR1bits.TMR1IF = 0);
  4515   002BDC  909E               	bcf	158,0,c	;volatile
  4516   002BDE                     
  4517                           ;hal_timer1.c: 138:     TMR1H = (timer1_preload_value) >> 8;
  4518   002BDE  5048               	movf	(_timer1_preload_value+1)^0,w,c
  4519   002BE0  6ECF               	movwf	207,c	;volatile
  4520   002BE2                     
  4521                           ;hal_timer1.c: 139:     TMR1L = (uint8)(timer1_preload_value);
  4522   002BE2  C047  FFCE         	movff	_timer1_preload_value,4046	;volatile
  4523   002BE6  0012               	return		;funcret
  4524   002BE8                     __end_of_TIMER1_ISR:
  4525                           	callstack 0
  4526                           
  4527 ;; *************** function _TIMER0_ISR *****************
  4528 ;; Defined at:
  4529 ;;		line 135 in file "MCAL_Layer/TIMER0/TIMER0.c"
  4530 ;; Parameters:    Size  Location     Type
  4531 ;;		None
  4532 ;; Auto vars:     Size  Location     Type
  4533 ;;		None
  4534 ;; Return value:  Size  Location     Type
  4535 ;;                  1    wreg      void 
  4536 ;; Registers used:
  4537 ;;		wreg, status,2
  4538 ;; Tracked objects:
  4539 ;;		On entry : 0/0
  4540 ;;		On exit  : 0/0
  4541 ;;		Unchanged: 0/0
  4542 ;; Data sizes:     COMRAM   BANK0   BANK1   BANK2   BANK3   BANK4   BANK5   BANK6   BANK7   BANK8   BANK9  BANK10  BANK1
      +1  BANK12  BANK13  BANK14  BANK15
  4543 ;;      Params:         0       0       0       0       0       0       0       0       0       0       0       0       
      +0       0       0       0       0
  4544 ;;      Locals:         0       0       0       0       0       0       0       0       0       0       0       0       
      +0       0       0       0       0
  4545 ;;      Temps:          0       0       0       0       0       0       0       0       0       0       0       0       
      +0       0       0       0       0
  4546 ;;      Totals:         0       0       0       0       0       0       0       0       0       0       0       0       
      +0       0       0       0       0
  4547 ;;Total ram usage:        0 bytes
  4548 ;; Hardware stack levels used: 1
  4549 ;; This function calls:
  4550 ;;		Nothing
  4551 ;; This function is called by:
  4552 ;;		_InterruptManager
  4553 ;; This function uses a non-reentrant model
  4554 ;;
  4555                           
  4556                           	psect	text17
  4557   002BE8                     __ptext17:
  4558                           	callstack 0
  4559   002BE8                     _TIMER0_ISR:
  4560                           	callstack 25
  4561   002BE8                     
  4562                           ;MCAL_Layer/TIMER0/TIMER0.c: 136:     (INTCONbits.TMR0IF = 0);
  4563   002BE8  94F2               	bcf	242,2,c	;volatile
  4564   002BEA                     
  4565                           ;MCAL_Layer/TIMER0/TIMER0.c: 137:     TMR0H = (timer0_preload) >> 8;
  4566   002BEA  504A               	movf	(_timer0_preload+1)^0,w,c
  4567   002BEC  6ED7               	movwf	215,c	;volatile
  4568   002BEE                     
  4569                           ;MCAL_Layer/TIMER0/TIMER0.c: 138:     TMR0L = (uint8)(timer0_preload);
  4570   002BEE  C049  FFD6         	movff	_timer0_preload,4054	;volatile
  4571   002BF2  0012               	return		;funcret
  4572   002BF4                     __end_of_TIMER0_ISR:
  4573                           	callstack 0
  4574                           
  4575 ;; *************** function _RB7_ISR *****************
  4576 ;; Defined at:
  4577 ;;		line 141 in file "MCAL_Layer/Interrupt/hal_extrenal_interrupt.c"
  4578 ;; Parameters:    Size  Location     Type
  4579 ;;		None
  4580 ;; Auto vars:     Size  Location     Type
  4581 ;;		None
  4582 ;; Return value:  Size  Location     Type
  4583 ;;                  1    wreg      void 
  4584 ;; Registers used:
  4585 ;;		None
  4586 ;; Tracked objects:
  4587 ;;		On entry : 0/0
  4588 ;;		On exit  : 0/0
  4589 ;;		Unchanged: 0/0
  4590 ;; Data sizes:     COMRAM   BANK0   BANK1   BANK2   BANK3   BANK4   BANK5   BANK6   BANK7   BANK8   BANK9  BANK10  BANK1
      +1  BANK12  BANK13  BANK14  BANK15
  4591 ;;      Params:         0       0       0       0       0       0       0       0       0       0       0       0       
      +0       0       0       0       0
  4592 ;;      Locals:         0       0       0       0       0       0       0       0       0       0       0       0       
      +0       0       0       0       0
  4593 ;;      Temps:          0       0       0       0       0       0       0       0       0       0       0       0       
      +0       0       0       0       0
  4594 ;;      Totals:         0       0       0       0       0       0       0       0       0       0       0       0       
      +0       0       0       0       0
  4595 ;;Total ram usage:        0 bytes
  4596 ;; Hardware stack levels used: 1
  4597 ;; This function calls:
  4598 ;;		Nothing
  4599 ;; This function is called by:
  4600 ;;		_InterruptManager
  4601 ;; This function uses a non-reentrant model
  4602 ;;
  4603                           
  4604                           	psect	text18
  4605   002BFC                     __ptext18:
  4606                           	callstack 0
  4607   002BFC                     _RB7_ISR:
  4608                           	callstack 25
  4609   002BFC                     
  4610                           ;MCAL_Layer/Interrupt/hal_extrenal_interrupt.c: 143:     (INTCONbits.RBIF = 0);
  4611   002BFC  90F2               	bcf	242,0,c	;volatile
  4612   002BFE  0012               	return		;funcret
  4613   002C00                     __end_of_RB7_ISR:
  4614                           	callstack 0
  4615                           
  4616 ;; *************** function _RB6_ISR *****************
  4617 ;; Defined at:
  4618 ;;		line 130 in file "MCAL_Layer/Interrupt/hal_extrenal_interrupt.c"
  4619 ;; Parameters:    Size  Location     Type
  4620 ;;		None
  4621 ;; Auto vars:     Size  Location     Type
  4622 ;;		None
  4623 ;; Return value:  Size  Location     Type
  4624 ;;                  1    wreg      void 
  4625 ;; Registers used:
  4626 ;;		None
  4627 ;; Tracked objects:
  4628 ;;		On entry : 0/0
  4629 ;;		On exit  : 0/0
  4630 ;;		Unchanged: 0/0
  4631 ;; Data sizes:     COMRAM   BANK0   BANK1   BANK2   BANK3   BANK4   BANK5   BANK6   BANK7   BANK8   BANK9  BANK10  BANK1
      +1  BANK12  BANK13  BANK14  BANK15
  4632 ;;      Params:         0       0       0       0       0       0       0       0       0       0       0       0       
      +0       0       0       0       0
  4633 ;;      Locals:         0       0       0       0       0       0       0       0       0       0       0       0       
      +0       0       0       0       0
  4634 ;;      Temps:          0       0       0       0       0       0       0       0       0       0       0       0       
      +0       0       0       0       0
  4635 ;;      Totals:         0       0       0       0       0       0       0       0       0       0       0       0       
      +0       0       0       0       0
  4636 ;;Total ram usage:        0 bytes
  4637 ;; Hardware stack levels used: 1
  4638 ;; This function calls:
  4639 ;;		Nothing
  4640 ;; This function is called by:
  4641 ;;		_InterruptManager
  4642 ;; This function uses a non-reentrant model
  4643 ;;
  4644                           
  4645                           	psect	text19
  4646   002C00                     __ptext19:
  4647                           	callstack 0
  4648   002C00                     _RB6_ISR:
  4649                           	callstack 25
  4650   002C00                     
  4651                           ;MCAL_Layer/Interrupt/hal_extrenal_interrupt.c: 132:     (INTCONbits.RBIF = 0);
  4652   002C00  90F2               	bcf	242,0,c	;volatile
  4653   002C02  0012               	return		;funcret
  4654   002C04                     __end_of_RB6_ISR:
  4655                           	callstack 0
  4656                           
  4657 ;; *************** function _RB5_ISR *****************
  4658 ;; Defined at:
  4659 ;;		line 119 in file "MCAL_Layer/Interrupt/hal_extrenal_interrupt.c"
  4660 ;; Parameters:    Size  Location     Type
  4661 ;;		None
  4662 ;; Auto vars:     Size  Location     Type
  4663 ;;		None
  4664 ;; Return value:  Size  Location     Type
  4665 ;;                  1    wreg      void 
  4666 ;; Registers used:
  4667 ;;		None
  4668 ;; Tracked objects:
  4669 ;;		On entry : 0/0
  4670 ;;		On exit  : 0/0
  4671 ;;		Unchanged: 0/0
  4672 ;; Data sizes:     COMRAM   BANK0   BANK1   BANK2   BANK3   BANK4   BANK5   BANK6   BANK7   BANK8   BANK9  BANK10  BANK1
      +1  BANK12  BANK13  BANK14  BANK15
  4673 ;;      Params:         0       0       0       0       0       0       0       0       0       0       0       0       
      +0       0       0       0       0
  4674 ;;      Locals:         0       0       0       0       0       0       0       0       0       0       0       0       
      +0       0       0       0       0
  4675 ;;      Temps:          0       0       0       0       0       0       0       0       0       0       0       0       
      +0       0       0       0       0
  4676 ;;      Totals:         0       0       0       0       0       0       0       0       0       0       0       0       
      +0       0       0       0       0
  4677 ;;Total ram usage:        0 bytes
  4678 ;; Hardware stack levels used: 1
  4679 ;; This function calls:
  4680 ;;		Nothing
  4681 ;; This function is called by:
  4682 ;;		_InterruptManager
  4683 ;; This function uses a non-reentrant model
  4684 ;;
  4685                           
  4686                           	psect	text20
  4687   002C04                     __ptext20:
  4688                           	callstack 0
  4689   002C04                     _RB5_ISR:
  4690                           	callstack 25
  4691   002C04                     
  4692                           ;MCAL_Layer/Interrupt/hal_extrenal_interrupt.c: 121:     (INTCONbits.RBIF = 0);
  4693   002C04  90F2               	bcf	242,0,c	;volatile
  4694   002C06  0012               	return		;funcret
  4695   002C08                     __end_of_RB5_ISR:
  4696                           	callstack 0
  4697                           
  4698 ;; *************** function _RB4_ISR *****************
  4699 ;; Defined at:
  4700 ;;		line 109 in file "MCAL_Layer/Interrupt/hal_extrenal_interrupt.c"
  4701 ;; Parameters:    Size  Location     Type
  4702 ;;		None
  4703 ;; Auto vars:     Size  Location     Type
  4704 ;;		None
  4705 ;; Return value:  Size  Location     Type
  4706 ;;                  1    wreg      void 
  4707 ;; Registers used:
  4708 ;;		None
  4709 ;; Tracked objects:
  4710 ;;		On entry : 0/0
  4711 ;;		On exit  : 0/0
  4712 ;;		Unchanged: 0/0
  4713 ;; Data sizes:     COMRAM   BANK0   BANK1   BANK2   BANK3   BANK4   BANK5   BANK6   BANK7   BANK8   BANK9  BANK10  BANK1
      +1  BANK12  BANK13  BANK14  BANK15
  4714 ;;      Params:         0       0       0       0       0       0       0       0       0       0       0       0       
      +0       0       0       0       0
  4715 ;;      Locals:         0       0       0       0       0       0       0       0       0       0       0       0       
      +0       0       0       0       0
  4716 ;;      Temps:          0       0       0       0       0       0       0       0       0       0       0       0       
      +0       0       0       0       0
  4717 ;;      Totals:         0       0       0       0       0       0       0       0       0       0       0       0       
      +0       0       0       0       0
  4718 ;;Total ram usage:        0 bytes
  4719 ;; Hardware stack levels used: 1
  4720 ;; This function calls:
  4721 ;;		Nothing
  4722 ;; This function is called by:
  4723 ;;		_InterruptManager
  4724 ;; This function uses a non-reentrant model
  4725 ;;
  4726                           
  4727                           	psect	text21
  4728   002C08                     __ptext21:
  4729                           	callstack 0
  4730   002C08                     _RB4_ISR:
  4731                           	callstack 25
  4732   002C08                     
  4733                           ;MCAL_Layer/Interrupt/hal_extrenal_interrupt.c: 111:     (INTCONbits.RBIF = 0);
  4734   002C08  90F2               	bcf	242,0,c	;volatile
  4735   002C0A  0012               	return		;funcret
  4736   002C0C                     __end_of_RB4_ISR:
  4737                           	callstack 0
  4738                           
  4739 ;; *************** function _INT2_ISR *****************
  4740 ;; Defined at:
  4741 ;;		line 99 in file "MCAL_Layer/Interrupt/hal_extrenal_interrupt.c"
  4742 ;; Parameters:    Size  Location     Type
  4743 ;;		None
  4744 ;; Auto vars:     Size  Location     Type
  4745 ;;		None
  4746 ;; Return value:  Size  Location     Type
  4747 ;;                  1    wreg      void 
  4748 ;; Registers used:
  4749 ;;		None
  4750 ;; Tracked objects:
  4751 ;;		On entry : 0/0
  4752 ;;		On exit  : 0/0
  4753 ;;		Unchanged: 0/0
  4754 ;; Data sizes:     COMRAM   BANK0   BANK1   BANK2   BANK3   BANK4   BANK5   BANK6   BANK7   BANK8   BANK9  BANK10  BANK1
      +1  BANK12  BANK13  BANK14  BANK15
  4755 ;;      Params:         0       0       0       0       0       0       0       0       0       0       0       0       
      +0       0       0       0       0
  4756 ;;      Locals:         0       0       0       0       0       0       0       0       0       0       0       0       
      +0       0       0       0       0
  4757 ;;      Temps:          0       0       0       0       0       0       0       0       0       0       0       0       
      +0       0       0       0       0
  4758 ;;      Totals:         0       0       0       0       0       0       0       0       0       0       0       0       
      +0       0       0       0       0
  4759 ;;Total ram usage:        0 bytes
  4760 ;; Hardware stack levels used: 1
  4761 ;; This function calls:
  4762 ;;		Nothing
  4763 ;; This function is called by:
  4764 ;;		_InterruptManager
  4765 ;; This function uses a non-reentrant model
  4766 ;;
  4767                           
  4768                           	psect	text22
  4769   002C0C                     __ptext22:
  4770                           	callstack 0
  4771   002C0C                     _INT2_ISR:
  4772                           	callstack 25
  4773   002C0C                     
  4774                           ;MCAL_Layer/Interrupt/hal_extrenal_interrupt.c: 101:     (INTCON3bits.INT2F = 0);
  4775   002C0C  92F0               	bcf	240,1,c	;volatile
  4776   002C0E  0012               	return		;funcret
  4777   002C10                     __end_of_INT2_ISR:
  4778                           	callstack 0
  4779                           
  4780 ;; *************** function _INT1_ISR *****************
  4781 ;; Defined at:
  4782 ;;		line 88 in file "MCAL_Layer/Interrupt/hal_extrenal_interrupt.c"
  4783 ;; Parameters:    Size  Location     Type
  4784 ;;		None
  4785 ;; Auto vars:     Size  Location     Type
  4786 ;;		None
  4787 ;; Return value:  Size  Location     Type
  4788 ;;                  1    wreg      void 
  4789 ;; Registers used:
  4790 ;;		None
  4791 ;; Tracked objects:
  4792 ;;		On entry : 0/0
  4793 ;;		On exit  : 0/0
  4794 ;;		Unchanged: 0/0
  4795 ;; Data sizes:     COMRAM   BANK0   BANK1   BANK2   BANK3   BANK4   BANK5   BANK6   BANK7   BANK8   BANK9  BANK10  BANK1
      +1  BANK12  BANK13  BANK14  BANK15
  4796 ;;      Params:         0       0       0       0       0       0       0       0       0       0       0       0       
      +0       0       0       0       0
  4797 ;;      Locals:         0       0       0       0       0       0       0       0       0       0       0       0       
      +0       0       0       0       0
  4798 ;;      Temps:          0       0       0       0       0       0       0       0       0       0       0       0       
      +0       0       0       0       0
  4799 ;;      Totals:         0       0       0       0       0       0       0       0       0       0       0       0       
      +0       0       0       0       0
  4800 ;;Total ram usage:        0 bytes
  4801 ;; Hardware stack levels used: 1
  4802 ;; This function calls:
  4803 ;;		Nothing
  4804 ;; This function is called by:
  4805 ;;		_InterruptManager
  4806 ;; This function uses a non-reentrant model
  4807 ;;
  4808                           
  4809                           	psect	text23
  4810   002C10                     __ptext23:
  4811                           	callstack 0
  4812   002C10                     _INT1_ISR:
  4813                           	callstack 25
  4814   002C10                     
  4815                           ;MCAL_Layer/Interrupt/hal_extrenal_interrupt.c: 90:     (INTCON3bits.INT1F = 0);
  4816   002C10  90F0               	bcf	240,0,c	;volatile
  4817   002C12  0012               	return		;funcret
  4818   002C14                     __end_of_INT1_ISR:
  4819                           	callstack 0
  4820                           
  4821 ;; *************** function _INT0_ISR *****************
  4822 ;; Defined at:
  4823 ;;		line 77 in file "MCAL_Layer/Interrupt/hal_extrenal_interrupt.c"
  4824 ;; Parameters:    Size  Location     Type
  4825 ;;		None
  4826 ;; Auto vars:     Size  Location     Type
  4827 ;;		None
  4828 ;; Return value:  Size  Location     Type
  4829 ;;                  1    wreg      void 
  4830 ;; Registers used:
  4831 ;;		None
  4832 ;; Tracked objects:
  4833 ;;		On entry : 0/0
  4834 ;;		On exit  : 0/0
  4835 ;;		Unchanged: 0/0
  4836 ;; Data sizes:     COMRAM   BANK0   BANK1   BANK2   BANK3   BANK4   BANK5   BANK6   BANK7   BANK8   BANK9  BANK10  BANK1
      +1  BANK12  BANK13  BANK14  BANK15
  4837 ;;      Params:         0       0       0       0       0       0       0       0       0       0       0       0       
      +0       0       0       0       0
  4838 ;;      Locals:         0       0       0       0       0       0       0       0       0       0       0       0       
      +0       0       0       0       0
  4839 ;;      Temps:          0       0       0       0       0       0       0       0       0       0       0       0       
      +0       0       0       0       0
  4840 ;;      Totals:         0       0       0       0       0       0       0       0       0       0       0       0       
      +0       0       0       0       0
  4841 ;;Total ram usage:        0 bytes
  4842 ;; Hardware stack levels used: 1
  4843 ;; This function calls:
  4844 ;;		Nothing
  4845 ;; This function is called by:
  4846 ;;		_InterruptManager
  4847 ;; This function uses a non-reentrant model
  4848 ;;
  4849                           
  4850                           	psect	text24
  4851   002C14                     __ptext24:
  4852                           	callstack 0
  4853   002C14                     _INT0_ISR:
  4854                           	callstack 25
  4855   002C14                     
  4856                           ;MCAL_Layer/Interrupt/hal_extrenal_interrupt.c: 79:     (INTCONbits.INT0IF = 0);
  4857   002C14  92F2               	bcf	242,1,c	;volatile
  4858   002C16  0012               	return		;funcret
  4859   002C18                     __end_of_INT0_ISR:
  4860                           	callstack 0
  4861                           
  4862 ;; *************** function _EUSART_TX_ISR *****************
  4863 ;; Defined at:
  4864 ;;		line 267 in file "MCAL_Layer/usart/hal_usart.c"
  4865 ;; Parameters:    Size  Location     Type
  4866 ;;		None
  4867 ;; Auto vars:     Size  Location     Type
  4868 ;;		None
  4869 ;; Return value:  Size  Location     Type
  4870 ;;                  1    wreg      void 
  4871 ;; Registers used:
  4872 ;;		wreg, fsr2l, fsr2h, status,2, status,0, pcl, pclath, pclatu, tosl, prodl, prodh, cstack
  4873 ;; Tracked objects:
  4874 ;;		On entry : 0/0
  4875 ;;		On exit  : 0/0
  4876 ;;		Unchanged: 0/0
  4877 ;; Data sizes:     COMRAM   BANK0   BANK1   BANK2   BANK3   BANK4   BANK5   BANK6   BANK7   BANK8   BANK9  BANK10  BANK1
      +1  BANK12  BANK13  BANK14  BANK15
  4878 ;;      Params:         0       0       0       0       0       0       0       0       0       0       0       0       
      +0       0       0       0       0
  4879 ;;      Locals:         0       0       0       0       0       0       0       0       0       0       0       0       
      +0       0       0       0       0
  4880 ;;      Temps:          0       0       0       0       0       0       0       0       0       0       0       0       
      +0       0       0       0       0
  4881 ;;      Totals:         0       0       0       0       0       0       0       0       0       0       0       0       
      +0       0       0       0       0
  4882 ;;Total ram usage:        0 bytes
  4883 ;; Hardware stack levels used: 1
  4884 ;; Hardware stack levels required when called: 3
  4885 ;; This function calls:
  4886 ;;		Absolute function
  4887 ;;		_EUSART_IN
  4888 ;; This function is called by:
  4889 ;;		_InterruptManager
  4890 ;; This function uses a non-reentrant model
  4891 ;;
  4892                           
  4893                           	psect	text25
  4894   002B60                     __ptext25:
  4895                           	callstack 0
  4896   002B60                     _EUSART_TX_ISR:
  4897                           	callstack 22
  4898   002B60                     
  4899                           ;MCAL_Layer/usart/hal_usart.c: 268:     PIE1bits.TXIE = 0;
  4900   002B60  989D               	bcf	157,4,c	;volatile
  4901   002B62                     
  4902                           ;MCAL_Layer/usart/hal_usart.c: 269:     if(EUSART_TX_InterruptHandler){
  4903   002B62  504D               	movf	_EUSART_TX_InterruptHandler^0,w,c
  4904   002B64  104E               	iorwf	(_EUSART_TX_InterruptHandler+1)^0,w,c
  4905   002B66  B4D8               	btfsc	status,2,c
  4906   002B68  EFB8  F015         	goto	i2u463_41
  4907   002B6C  EFBA  F015         	goto	i2u463_40
  4908   002B70                     i2u463_41:
  4909   002B70  EFC6  F015         	goto	i2l726
  4910   002B74                     i2u463_40:
  4911   002B74                     
  4912                           ;MCAL_Layer/usart/hal_usart.c: 270:         EUSART_TX_InterruptHandler();
  4913   002B74  D802               	call	i2u464_48
  4914   002B76  EFC6  F015         	goto	i2u464_49
  4915   002B7A                     i2u464_48:
  4916   002B7A  0005               	push	
  4917   002B7C  6EFA               	movwf	pclath,c
  4918   002B7E  504D               	movf	_EUSART_TX_InterruptHandler^0,w,c
  4919   002B80  6EFD               	movwf	tosl,c
  4920   002B82  504E               	movf	(_EUSART_TX_InterruptHandler+1)^0,w,c
  4921   002B84  6EFE               	movwf	tosh,c
  4922   002B86  6AFF               	clrf	tosu,c
  4923   002B88  50FA               	movf	pclath,w,c
  4924   002B8A  0012               	return		;indir
  4925   002B8C                     i2u464_49:
  4926   002B8C                     i2l726:
  4927   002B8C  0012               	return		;funcret
  4928   002B8E                     __end_of_EUSART_TX_ISR:
  4929                           	callstack 0
  4930                           
  4931 ;; *************** function _EUSART_IN *****************
  4932 ;; Defined at:
  4933 ;;		line 435 in file "Application.c"
  4934 ;; Parameters:    Size  Location     Type
  4935 ;;		None
  4936 ;; Auto vars:     Size  Location     Type
  4937 ;;		None
  4938 ;; Return value:  Size  Location     Type
  4939 ;;                  1    wreg      void 
  4940 ;; Registers used:
  4941 ;;		wreg, fsr2l, fsr2h, status,2, status,0, prodl, prodh, cstack
  4942 ;; Tracked objects:
  4943 ;;		On entry : 0/0
  4944 ;;		On exit  : 0/0
  4945 ;;		Unchanged: 0/0
  4946 ;; Data sizes:     COMRAM   BANK0   BANK1   BANK2   BANK3   BANK4   BANK5   BANK6   BANK7   BANK8   BANK9  BANK10  BANK1
      +1  BANK12  BANK13  BANK14  BANK15
  4947 ;;      Params:         0       0       0       0       0       0       0       0       0       0       0       0       
      +0       0       0       0       0
  4948 ;;      Locals:         0       0       0       0       0       0       0       0       0       0       0       0       
      +0       0       0       0       0
  4949 ;;      Temps:          0       0       0       0       0       0       0       0       0       0       0       0       
      +0       0       0       0       0
  4950 ;;      Totals:         0       0       0       0       0       0       0       0       0       0       0       0       
      +0       0       0       0       0
  4951 ;;Total ram usage:        0 bytes
  4952 ;; Hardware stack levels used: 1
  4953 ;; Hardware stack levels required when called: 2
  4954 ;; This function calls:
  4955 ;;		_led_toggle_logic
  4956 ;; This function is called by:
  4957 ;;		_EUSART_TX_ISR
  4958 ;; This function uses a non-reentrant model
  4959 ;;
  4960                           
  4961                           	psect	text26
  4962   002BB6                     __ptext26:
  4963                           	callstack 0
  4964   002BB6                     _EUSART_IN:
  4965                           	callstack 22
  4966   002BB6                     
  4967                           ;Application.c: 436:     led_toggle_logic(&led1);
  4968   002BB6  0E68               	movlw	low _led1
  4969   002BB8  6E08               	movwf	led_toggle_logic@led^0,c
  4970   002BBA  0E00               	movlw	high _led1
  4971   002BBC  6E09               	movwf	(led_toggle_logic@led+1)^0,c
  4972   002BBE  ECA2  F014         	call	_led_toggle_logic	;wreg free
  4973   002BC2  0012               	return		;funcret
  4974   002BC4                     __end_of_EUSART_IN:
  4975                           	callstack 0
  4976                           
  4977 ;; *************** function _EUSART_RX_ISR *****************
  4978 ;; Defined at:
  4979 ;;		line 275 in file "MCAL_Layer/usart/hal_usart.c"
  4980 ;; Parameters:    Size  Location     Type
  4981 ;;		None
  4982 ;; Auto vars:     Size  Location     Type
  4983 ;;		None
  4984 ;; Return value:  Size  Location     Type
  4985 ;;                  1    wreg      void 
  4986 ;; Registers used:
  4987 ;;		wreg, fsr2l, fsr2h, status,2, status,0, pcl, pclath, pclatu, tosl, prodl, prodh, cstack
  4988 ;; Tracked objects:
  4989 ;;		On entry : 0/0
  4990 ;;		On exit  : 0/0
  4991 ;;		Unchanged: 0/0
  4992 ;; Data sizes:     COMRAM   BANK0   BANK1   BANK2   BANK3   BANK4   BANK5   BANK6   BANK7   BANK8   BANK9  BANK10  BANK1
      +1  BANK12  BANK13  BANK14  BANK15
  4993 ;;      Params:         0       0       0       0       0       0       0       0       0       0       0       0       
      +0       0       0       0       0
  4994 ;;      Locals:         0       0       0       0       0       0       0       0       0       0       0       0       
      +0       0       0       0       0
  4995 ;;      Temps:          0       0       0       0       0       0       0       0       0       0       0       0       
      +0       0       0       0       0
  4996 ;;      Totals:         0       0       0       0       0       0       0       0       0       0       0       0       
      +0       0       0       0       0
  4997 ;;Total ram usage:        0 bytes
  4998 ;; Hardware stack levels used: 1
  4999 ;; Hardware stack levels required when called: 3
  5000 ;; This function calls:
  5001 ;;		Absolute function
  5002 ;;		_EUSART_OUT
  5003 ;; This function is called by:
  5004 ;;		_InterruptManager
  5005 ;; This function uses a non-reentrant model
  5006 ;;
  5007                           
  5008                           	psect	text27
  5009   002B30                     __ptext27:
  5010                           	callstack 0
  5011   002B30                     _EUSART_RX_ISR:
  5012                           	callstack 22
  5013   002B30                     
  5014                           ;MCAL_Layer/usart/hal_usart.c: 276:     if(EUSART_RX_InterruptHandler){
  5015   002B30  504B               	movf	_EUSART_RX_InterruptHandler^0,w,c
  5016   002B32  104C               	iorwf	(_EUSART_RX_InterruptHandler+1)^0,w,c
  5017   002B34  B4D8               	btfsc	status,2,c
  5018   002B36  EF9F  F015         	goto	i2u465_41
  5019   002B3A  EFA1  F015         	goto	i2u465_40
  5020   002B3E                     i2u465_41:
  5021   002B3E  EFAF  F015         	goto	i2l5361
  5022   002B42                     i2u465_40:
  5023   002B42                     
  5024                           ;MCAL_Layer/usart/hal_usart.c: 277:         EUSART_RX_InterruptHandler();
  5025   002B42  D802               	call	i2u466_48
  5026   002B44  EFAD  F015         	goto	i2u466_49
  5027   002B48                     i2u466_48:
  5028   002B48  0005               	push	
  5029   002B4A  6EFA               	movwf	pclath,c
  5030   002B4C  504B               	movf	_EUSART_RX_InterruptHandler^0,w,c
  5031   002B4E  6EFD               	movwf	tosl,c
  5032   002B50  504C               	movf	(_EUSART_RX_InterruptHandler+1)^0,w,c
  5033   002B52  6EFE               	movwf	tosh,c
  5034   002B54  6AFF               	clrf	tosu,c
  5035   002B56  50FA               	movf	pclath,w,c
  5036   002B58  0012               	return		;indir
  5037   002B5A                     i2u466_49:
  5038                           
  5039                           ;MCAL_Layer/usart/hal_usart.c: 278:     }
  5040   002B5A  EFAF  F015         	goto	i2l735
  5041   002B5E                     i2l5361:
  5042   002B5E                     i2l735:
  5043   002B5E  0012               	return		;funcret
  5044   002B60                     __end_of_EUSART_RX_ISR:
  5045                           	callstack 0
  5046                           
  5047 ;; *************** function _EUSART_OUT *****************
  5048 ;; Defined at:
  5049 ;;		line 456 in file "Application.c"
  5050 ;; Parameters:    Size  Location     Type
  5051 ;;		None
  5052 ;; Auto vars:     Size  Location     Type
  5053 ;;		None
  5054 ;; Return value:  Size  Location     Type
  5055 ;;                  1    wreg      void 
  5056 ;; Registers used:
  5057 ;;		wreg, fsr2l, fsr2h, status,2, status,0, prodl, prodh, cstack
  5058 ;; Tracked objects:
  5059 ;;		On entry : 0/0
  5060 ;;		On exit  : 0/0
  5061 ;;		Unchanged: 0/0
  5062 ;; Data sizes:     COMRAM   BANK0   BANK1   BANK2   BANK3   BANK4   BANK5   BANK6   BANK7   BANK8   BANK9  BANK10  BANK1
      +1  BANK12  BANK13  BANK14  BANK15
  5063 ;;      Params:         0       0       0       0       0       0       0       0       0       0       0       0       
      +0       0       0       0       0
  5064 ;;      Locals:         0       0       0       0       0       0       0       0       0       0       0       0       
      +0       0       0       0       0
  5065 ;;      Temps:          2       0       0       0       0       0       0       0       0       0       0       0       
      +0       0       0       0       0
  5066 ;;      Totals:         2       0       0       0       0       0       0       0       0       0       0       0       
      +0       0       0       0       0
  5067 ;;Total ram usage:        2 bytes
  5068 ;; Hardware stack levels used: 1
  5069 ;; Hardware stack levels required when called: 2
  5070 ;; This function calls:
  5071 ;;		_EUSART_ASYNC_ReadByte_NonBlocking
  5072 ;;		_led_toggle_logic
  5073 ;;		_led_turn_on
  5074 ;; This function is called by:
  5075 ;;		_EUSART_RX_ISR
  5076 ;; This function uses a non-reentrant model
  5077 ;;
  5078                           
  5079                           	psect	text28
  5080   0029B6                     __ptext28:
  5081                           	callstack 0
  5082   0029B6                     _EUSART_OUT:
  5083                           	callstack 22
  5084   0029B6                     
  5085                           ;Application.c: 457:     led_toggle_logic(&led2);
  5086   0029B6  0E67               	movlw	low _led2
  5087   0029B8  6E08               	movwf	led_toggle_logic@led^0,c
  5088   0029BA  0E00               	movlw	high _led2
  5089   0029BC  6E09               	movwf	(led_toggle_logic@led+1)^0,c
  5090   0029BE  ECA2  F014         	call	_led_toggle_logic	;wreg free
  5091   0029C2                     
  5092                           ;Application.c: 458:     ret = EUSART_ASYNC_ReadByte_NonBlocking(&usart_obj, &value_usar
      +                          t);
  5093   0029C2  0E9E               	movlw	low _usart_obj
  5094   0029C4  6E01               	movwf	EUSART_ASYNC_ReadByte_NonBlocking@_eusart^0,c
  5095   0029C6  0E00               	movlw	high _usart_obj
  5096   0029C8  6E02               	movwf	(EUSART_ASYNC_ReadByte_NonBlocking@_eusart+1)^0,c
  5097   0029CA  0E65               	movlw	low _value_usart
  5098   0029CC  6E03               	movwf	EUSART_ASYNC_ReadByte_NonBlocking@_data^0,c
  5099   0029CE  0E00               	movlw	high _value_usart
  5100   0029D0  6E04               	movwf	(EUSART_ASYNC_ReadByte_NonBlocking@_data+1)^0,c
  5101   0029D2  EC61  F015         	call	_EUSART_ASYNC_ReadByte_NonBlocking	;wreg free
  5102   0029D6  6E66               	movwf	_ret^0,c
  5103                           
  5104                           ;Application.c: 459:     switch(value_usart){
  5105   0029D8  EFFC  F014         	goto	i2l5293
  5106   0029DC                     i2l5289:
  5107                           
  5108                           ;Application.c: 461:             led_turn_on(&led1);
  5109   0029DC  0E68               	movlw	low _led1
  5110   0029DE  6E0A               	movwf	led_turn_on@led^0,c
  5111   0029E0  0E00               	movlw	high _led1
  5112   0029E2  6E0B               	movwf	(led_turn_on@led+1)^0,c
  5113   0029E4  EC67  F014         	call	_led_turn_on	;wreg free
  5114                           
  5115                           ;Application.c: 462:             led_turn_on(&led2);
  5116   0029E8  0E67               	movlw	low _led2
  5117   0029EA  6E0A               	movwf	led_turn_on@led^0,c
  5118   0029EC  0E00               	movlw	high _led2
  5119   0029EE  6E0B               	movwf	(led_turn_on@led+1)^0,c
  5120   0029F0  EC67  F014         	call	_led_turn_on	;wreg free
  5121                           
  5122                           ;Application.c: 463:             break;
  5123   0029F4  EF0D  F015         	goto	i2l1337
  5124   0029F8                     i2l5293:
  5125   0029F8  5065               	movf	_value_usart^0,w,c
  5126   0029FA  6E0E               	movwf	??_EUSART_OUT^0,c
  5127   0029FC  6A0F               	clrf	(??_EUSART_OUT+1)^0,c
  5128                           
  5129                           ; Switch on 2 bytes has been partitioned into a top level switch of size 1, and 1 sub-sw
      +                          itches
  5130                           ; Switch size 1, requested type "simple"
  5131                           ; Number of cases is 1, Range of values is 0 to 0
  5132                           ; switch strategies available:
  5133                           ; Name         Instructions Cycles
  5134                           ; simple_byte            4     3 (average)
  5135                           ;	Chosen strategy is simple_byte
  5136   0029FE  500F               	movf	(??_EUSART_OUT+1)^0,w,c
  5137   002A00  0A00               	xorlw	0	; case 0
  5138   002A02  B4D8               	btfsc	status,2,c
  5139   002A04  EF06  F015         	goto	i2l7175
  5140   002A08  EF0D  F015         	goto	i2l1337
  5141   002A0C                     i2l7175:
  5142                           
  5143                           ; Switch size 1, requested type "simple"
  5144                           ; Number of cases is 1, Range of values is 97 to 97
  5145                           ; switch strategies available:
  5146                           ; Name         Instructions Cycles
  5147                           ; simple_byte            4     3 (average)
  5148                           ;	Chosen strategy is simple_byte
  5149   002A0C  500E               	movf	??_EUSART_OUT^0,w,c
  5150   002A0E  0A61               	xorlw	97	; case 97
  5151   002A10  B4D8               	btfsc	status,2,c
  5152   002A12  EFEE  F014         	goto	i2l5289
  5153   002A16  EF0D  F015         	goto	i2l1337
  5154   002A1A                     i2l1337:
  5155   002A1A  0012               	return		;funcret
  5156   002A1C                     __end_of_EUSART_OUT:
  5157                           	callstack 0
  5158                           
  5159 ;; *************** function _led_turn_on *****************
  5160 ;; Defined at:
  5161 ;;		line 37 in file "ECU_Layer/Ecu_led.c"
  5162 ;; Parameters:    Size  Location     Type
  5163 ;;  led             2    9[COMRAM] PTR const struct .
  5164 ;;		 -> led2(1), led1(1), 
  5165 ;; Auto vars:     Size  Location     Type
  5166 ;;  pin_obj         1   12[COMRAM] struct .
  5167 ;;  ret             1    0        unsigned char 
  5168 ;; Return value:  Size  Location     Type
  5169 ;;                  1    wreg      unsigned char 
  5170 ;; Registers used:
  5171 ;;		wreg, fsr2l, fsr2h, status,2, status,0, prodl, prodh, cstack
  5172 ;; Tracked objects:
  5173 ;;		On entry : 0/0
  5174 ;;		On exit  : 0/0
  5175 ;;		Unchanged: 0/0
  5176 ;; Data sizes:     COMRAM   BANK0   BANK1   BANK2   BANK3   BANK4   BANK5   BANK6   BANK7   BANK8   BANK9  BANK10  BANK1
      +1  BANK12  BANK13  BANK14  BANK15
  5177 ;;      Params:         2       0       0       0       0       0       0       0       0       0       0       0       
      +0       0       0       0       0
  5178 ;;      Locals:         1       0       0       0       0       0       0       0       0       0       0       0       
      +0       0       0       0       0
  5179 ;;      Temps:          1       0       0       0       0       0       0       0       0       0       0       0       
      +0       0       0       0       0
  5180 ;;      Totals:         4       0       0       0       0       0       0       0       0       0       0       0       
      +0       0       0       0       0
  5181 ;;Total ram usage:        4 bytes
  5182 ;; Hardware stack levels used: 1
  5183 ;; Hardware stack levels required when called: 1
  5184 ;; This function calls:
  5185 ;;		i2_gpio_pin_write_logic
  5186 ;; This function is called by:
  5187 ;;		_EUSART_OUT
  5188 ;; This function uses a non-reentrant model
  5189 ;;
  5190                           
  5191                           	psect	text29
  5192   0028CE                     __ptext29:
  5193                           	callstack 0
  5194   0028CE                     _led_turn_on:
  5195                           	callstack 22
  5196   0028CE                     
  5197                           ;ECU_Layer/Ecu_led.c: 40:     if(led == ((void*)0)) ret = (STD_ReturnType)0x00;
  5198   0028CE  500A               	movf	led_turn_on@led^0,w,c
  5199   0028D0  100B               	iorwf	(led_turn_on@led+1)^0,w,c
  5200   0028D2  A4D8               	btfss	status,2,c
  5201   0028D4  EF6E  F014         	goto	i2u440_41
  5202   0028D8  EF70  F014         	goto	i2u440_40
  5203   0028DC                     i2u440_41:
  5204   0028DC  EF72  F014         	goto	i2l290
  5205   0028E0                     i2u440_40:
  5206   0028E0  EFA1  F014         	goto	i2l294
  5207   0028E4                     i2l290:
  5208                           
  5209                           ;ECU_Layer/Ecu_led.c: 42:        pin_config_t pin_obj = {
  5210   0028E4  C05B  F00D         	movff	led_turn_on@F3048,led_turn_on@pin_obj
  5211   0028E8  C00A  FFD9         	movff	led_turn_on@led,fsr2l
  5212   0028EC  C00B  FFDA         	movff	led_turn_on@led+1,fsr2h
  5213   0028F0  50DF               	movf	223,w,c
  5214   0028F2  0B0F               	andlw	15
  5215   0028F4  6E0C               	movwf	??_led_turn_on^0,c
  5216   0028F6  500D               	movf	led_turn_on@pin_obj^0,w,c
  5217   0028F8  180C               	xorwf	??_led_turn_on^0,w,c
  5218   0028FA  0BF8               	andlw	-8
  5219   0028FC  180C               	xorwf	??_led_turn_on^0,w,c
  5220   0028FE  6E0D               	movwf	led_turn_on@pin_obj^0,c
  5221   002900  C00A  FFD9         	movff	led_turn_on@led,fsr2l
  5222   002904  C00B  FFDA         	movff	led_turn_on@led+1,fsr2h
  5223   002908  38DF               	swapf	223,w,c
  5224   00290A  0B07               	andlw	7
  5225   00290C  6E0C               	movwf	??_led_turn_on^0,c
  5226   00290E  460C               	rlncf	??_led_turn_on^0,f,c
  5227   002910  460C               	rlncf	??_led_turn_on^0,f,c
  5228   002912  460C               	rlncf	??_led_turn_on^0,f,c
  5229   002914  500D               	movf	led_turn_on@pin_obj^0,w,c
  5230   002916  180C               	xorwf	??_led_turn_on^0,w,c
  5231   002918  0BC7               	andlw	-57
  5232   00291A  180C               	xorwf	??_led_turn_on^0,w,c
  5233   00291C  6E0D               	movwf	led_turn_on@pin_obj^0,c
  5234   00291E  9C0D               	bcf	led_turn_on@pin_obj^0,6,c
  5235   002920  C00A  FFD9         	movff	led_turn_on@led,fsr2l
  5236   002924  C00B  FFDA         	movff	led_turn_on@led+1,fsr2h
  5237   002928  AEDF               	btfss	indf2,7,c
  5238   00292A  D002               	bra	i2u441_45
  5239   00292C  8E0D               	bsf	led_turn_on@pin_obj^0,7,c
  5240   00292E  D001               	bra	i2u441_47
  5241   002930                     i2u441_45:
  5242   002930  9E0D               	bcf	led_turn_on@pin_obj^0,7,c
  5243   002932                     i2u441_47:
  5244   002932                     
  5245                           ;ECU_Layer/Ecu_led.c: 48:         gpio_pin_write_logic(&pin_obj, GPIO_HIGH);
  5246   002932  0E0D               	movlw	low led_turn_on@pin_obj
  5247   002934  6E01               	movwf	i2gpio_pin_write_logic@_pin_config_t^0,c
  5248   002936  0E00               	movlw	high led_turn_on@pin_obj
  5249   002938  6E02               	movwf	(i2gpio_pin_write_logic@_pin_config_t+1)^0,c
  5250   00293A  0E01               	movlw	1
  5251   00293C  6E03               	movwf	i2gpio_pin_write_logic@logic^0,c
  5252   00293E  EC15  F012         	call	i2_gpio_pin_write_logic	;wreg free
  5253   002942                     i2l294:
  5254   002942  0012               	return		;funcret
  5255   002944                     __end_of_led_turn_on:
  5256                           	callstack 0
  5257                           
  5258 ;; *************** function i2_gpio_pin_write_logic *****************
  5259 ;; Defined at:
  5260 ;;		line 70 in file "MCAL_Layer/hal_gpio.c"
  5261 ;; Parameters:    Size  Location     Type
  5262 ;;  _pin_config_    2    0[COMRAM] PTR const struct .
  5263 ;;		 -> relay_turn_off@relayy(1), relay_turn_on@relayy(1), relay_initialize@relayy(1), led_turn_off@pin_obj(1), 
  5264 ;;		 -> led_turn_on@pin_obj(1), led_initialize@pin_obj(1), Dc_motor_stop@dc_motor_pin_2(1), Dc_motor_stop@dc_motor_pin_1
      +(1), 
  5265 ;;		 -> Dc_motor_turn_right@dc_motor_pin_2(1), Dc_motor_turn_right@dc_motor_pin_1(1), Dc_motor_turn_left@dc_motor_pin_2(
      +1), Dc_motor_turn_left@dc_motor_pin_1(1), 
  5266 ;;		 -> Dc_motor_initialize@dc_motor_pin_2(1), Dc_motor_initialize@dc_motor_pin_1(1), 
  5267 ;;  logic           1    2[COMRAM] enum E2965
  5268 ;; Auto vars:     Size  Location     Type
  5269 ;;  ret             1    0        unsigned char 
  5270 ;; Return value:  Size  Location     Type
  5271 ;;                  1    wreg      unsigned char 
  5272 ;; Registers used:
  5273 ;;		wreg, fsr2l, fsr2h, status,2, status,0, prodl, prodh
  5274 ;; Tracked objects:
  5275 ;;		On entry : 0/0
  5276 ;;		On exit  : 0/0
  5277 ;;		Unchanged: 0/0
  5278 ;; Data sizes:     COMRAM   BANK0   BANK1   BANK2   BANK3   BANK4   BANK5   BANK6   BANK7   BANK8   BANK9  BANK10  BANK1
      +1  BANK12  BANK13  BANK14  BANK15
  5279 ;;      Params:         3       0       0       0       0       0       0       0       0       0       0       0       
      +0       0       0       0       0
  5280 ;;      Locals:         0       0       0       0       0       0       0       0       0       0       0       0       
      +0       0       0       0       0
  5281 ;;      Temps:          6       0       0       0       0       0       0       0       0       0       0       0       
      +0       0       0       0       0
  5282 ;;      Totals:         9       0       0       0       0       0       0       0       0       0       0       0       
      +0       0       0       0       0
  5283 ;;Total ram usage:        9 bytes
  5284 ;; Hardware stack levels used: 1
  5285 ;; This function calls:
  5286 ;;		Nothing
  5287 ;; This function is called by:
  5288 ;;		_led_turn_on
  5289 ;; This function uses a non-reentrant model
  5290 ;;
  5291                           
  5292                           	psect	text30
  5293   00242A                     __ptext30:
  5294                           	callstack 0
  5295   00242A                     i2_gpio_pin_write_logic:
  5296                           	callstack 22
  5297   00242A                     
  5298                           ;MCAL_Layer/hal_gpio.c: 72:     if(_pin_config_t == ((void*)0) || (_pin_config_t->port >
      +                           5 - 1) || (_pin_config_t->pin > 8 - 1)) ret = (STD_ReturnType)0x00;
  5299   00242A  5001               	movf	i2gpio_pin_write_logic@_pin_config_t^0,w,c
  5300   00242C  1002               	iorwf	(i2gpio_pin_write_logic@_pin_config_t+1)^0,w,c
  5301   00242E  B4D8               	btfsc	status,2,c
  5302   002430  EF1C  F012         	goto	i2u423_41
  5303   002434  EF1E  F012         	goto	i2u423_40
  5304   002438                     i2u423_41:
  5305   002438  EF3E  F012         	goto	i2l5031
  5306   00243C                     i2u423_40:
  5307   00243C  C001  FFD9         	movff	i2gpio_pin_write_logic@_pin_config_t,fsr2l
  5308   002440  C002  FFDA         	movff	i2gpio_pin_write_logic@_pin_config_t+1,fsr2h
  5309   002444  50DF               	movf	223,w,c
  5310   002446  0B07               	andlw	7
  5311   002448  6E04               	movwf	??i2_gpio_pin_write_logic^0,c
  5312   00244A  0E05               	movlw	5
  5313   00244C  6004               	cpfslt	??i2_gpio_pin_write_logic^0,c
  5314   00244E  EF2B  F012         	goto	i2u424_41
  5315   002452  EF2D  F012         	goto	i2u424_40
  5316   002456                     i2u424_41:
  5317   002456  EF3E  F012         	goto	i2l5031
  5318   00245A                     i2u424_40:
  5319   00245A  C001  FFD9         	movff	i2gpio_pin_write_logic@_pin_config_t,fsr2l
  5320   00245E  C002  FFDA         	movff	i2gpio_pin_write_logic@_pin_config_t+1,fsr2h
  5321   002462  30DF               	rrcf	223,w,c
  5322   002464  32E8               	rrcf	wreg,f,c
  5323   002466  32E8               	rrcf	wreg,f,c
  5324   002468  0B07               	andlw	7
  5325   00246A  6E04               	movwf	??i2_gpio_pin_write_logic^0,c
  5326   00246C  0E07               	movlw	7
  5327   00246E  6404               	cpfsgt	??i2_gpio_pin_write_logic^0,c
  5328   002470  EF3C  F012         	goto	i2u425_41
  5329   002474  EF3E  F012         	goto	i2u425_40
  5330   002478                     i2u425_41:
  5331   002478  EF9F  F012         	goto	i2l5039
  5332   00247C                     i2u425_40:
  5333   00247C                     i2l5031:
  5334   00247C  EFB4  F012         	goto	i2l802
  5335   002480                     i2l5033:
  5336                           
  5337                           ;MCAL_Layer/hal_gpio.c: 76:                 (*lat_register[_pin_config_t->port] &= ~(1 <
      +                          < _pin_config_t->pin));
  5338   002480  C001  FFD9         	movff	i2gpio_pin_write_logic@_pin_config_t,fsr2l
  5339   002484  C002  FFDA         	movff	i2gpio_pin_write_logic@_pin_config_t+1,fsr2h
  5340   002488  30DF               	rrcf	223,w,c
  5341   00248A  32E8               	rrcf	wreg,f,c
  5342   00248C  32E8               	rrcf	wreg,f,c
  5343   00248E  0B07               	andlw	7
  5344   002490  6E04               	movwf	??i2_gpio_pin_write_logic^0,c
  5345   002492  0E01               	movlw	1
  5346   002494  6E05               	movwf	(??i2_gpio_pin_write_logic+1)^0,c
  5347   002496  2A04               	incf	??i2_gpio_pin_write_logic^0,f,c
  5348   002498  EF50  F012         	goto	i2u426_44
  5349   00249C                     i2u426_45:
  5350   00249C  90D8               	bcf	status,0,c
  5351   00249E  3605               	rlcf	(??i2_gpio_pin_write_logic+1)^0,f,c
  5352   0024A0                     i2u426_44:
  5353   0024A0  2E04               	decfsz	??i2_gpio_pin_write_logic^0,f,c
  5354   0024A2  EF4E  F012         	goto	i2u426_45
  5355   0024A6  5005               	movf	(??i2_gpio_pin_write_logic+1)^0,w,c
  5356   0024A8  0AFF               	xorlw	255
  5357   0024AA  6E06               	movwf	(??i2_gpio_pin_write_logic+2)^0,c
  5358   0024AC  C001  FFD9         	movff	i2gpio_pin_write_logic@_pin_config_t,fsr2l
  5359   0024B0  C002  FFDA         	movff	i2gpio_pin_write_logic@_pin_config_t+1,fsr2h
  5360   0024B4  50DF               	movf	223,w,c
  5361   0024B6  0B07               	andlw	7
  5362   0024B8  6E07               	movwf	(??i2_gpio_pin_write_logic+3)^0,c
  5363   0024BA  5007               	movf	(??i2_gpio_pin_write_logic+3)^0,w,c
  5364   0024BC  0D02               	mullw	2
  5365   0024BE  0E8A               	movlw	low _lat_register
  5366   0024C0  24F3               	addwf	243,w,c
  5367   0024C2  6ED9               	movwf	fsr2l,c
  5368   0024C4  0E00               	movlw	high _lat_register
  5369   0024C6  20F4               	addwfc	prodh,w,c
  5370   0024C8  6EDA               	movwf	fsr2h,c
  5371   0024CA  CFDE F008          	movff	postinc2,??i2_gpio_pin_write_logic+4
  5372   0024CE  CFDD F009          	movff	postdec2,??i2_gpio_pin_write_logic+5
  5373   0024D2  C008  FFD9         	movff	??i2_gpio_pin_write_logic+4,fsr2l
  5374   0024D6  C009  FFDA         	movff	??i2_gpio_pin_write_logic+5,fsr2h
  5375   0024DA  5006               	movf	(??i2_gpio_pin_write_logic+2)^0,w,c
  5376   0024DC  16DF               	andwf	indf2,f,c
  5377                           
  5378                           ;MCAL_Layer/hal_gpio.c: 77:                 break;
  5379   0024DE  EFB4  F012         	goto	i2l802
  5380   0024E2                     i2l5035:
  5381                           
  5382                           ;MCAL_Layer/hal_gpio.c: 79:                 (*lat_register[_pin_config_t->port] |= (1 <<
      +                           _pin_config_t->pin));
  5383   0024E2  C001  FFD9         	movff	i2gpio_pin_write_logic@_pin_config_t,fsr2l
  5384   0024E6  C002  FFDA         	movff	i2gpio_pin_write_logic@_pin_config_t+1,fsr2h
  5385   0024EA  30DF               	rrcf	223,w,c
  5386   0024EC  32E8               	rrcf	wreg,f,c
  5387   0024EE  32E8               	rrcf	wreg,f,c
  5388   0024F0  0B07               	andlw	7
  5389   0024F2  6E04               	movwf	??i2_gpio_pin_write_logic^0,c
  5390   0024F4  0E01               	movlw	1
  5391   0024F6  6E05               	movwf	(??i2_gpio_pin_write_logic+1)^0,c
  5392   0024F8  2A04               	incf	??i2_gpio_pin_write_logic^0,f,c
  5393   0024FA  EF81  F012         	goto	i2u427_44
  5394   0024FE                     i2u427_45:
  5395   0024FE  90D8               	bcf	status,0,c
  5396   002500  3605               	rlcf	(??i2_gpio_pin_write_logic+1)^0,f,c
  5397   002502                     i2u427_44:
  5398   002502  2E04               	decfsz	??i2_gpio_pin_write_logic^0,f,c
  5399   002504  EF7F  F012         	goto	i2u427_45
  5400   002508  C001  FFD9         	movff	i2gpio_pin_write_logic@_pin_config_t,fsr2l
  5401   00250C  C002  FFDA         	movff	i2gpio_pin_write_logic@_pin_config_t+1,fsr2h
  5402   002510  50DF               	movf	223,w,c
  5403   002512  0B07               	andlw	7
  5404   002514  6E06               	movwf	(??i2_gpio_pin_write_logic+2)^0,c
  5405   002516  5006               	movf	(??i2_gpio_pin_write_logic+2)^0,w,c
  5406   002518  0D02               	mullw	2
  5407   00251A  0E8A               	movlw	low _lat_register
  5408   00251C  24F3               	addwf	243,w,c
  5409   00251E  6ED9               	movwf	fsr2l,c
  5410   002520  0E00               	movlw	high _lat_register
  5411   002522  20F4               	addwfc	prodh,w,c
  5412   002524  6EDA               	movwf	fsr2h,c
  5413   002526  CFDE F007          	movff	postinc2,??i2_gpio_pin_write_logic+3
  5414   00252A  CFDD F008          	movff	postdec2,??i2_gpio_pin_write_logic+4
  5415   00252E  C007  FFD9         	movff	??i2_gpio_pin_write_logic+3,fsr2l
  5416   002532  C008  FFDA         	movff	??i2_gpio_pin_write_logic+4,fsr2h
  5417   002536  5005               	movf	(??i2_gpio_pin_write_logic+1)^0,w,c
  5418   002538  12DF               	iorwf	indf2,f,c
  5419                           
  5420                           ;MCAL_Layer/hal_gpio.c: 80:                 break;
  5421   00253A  EFB4  F012         	goto	i2l802
  5422   00253E                     i2l5039:
  5423   00253E  5003               	movf	i2gpio_pin_write_logic@logic^0,w,c
  5424   002540  6E04               	movwf	??i2_gpio_pin_write_logic^0,c
  5425   002542  6A05               	clrf	(??i2_gpio_pin_write_logic+1)^0,c
  5426                           
  5427                           ; Switch on 2 bytes has been partitioned into a top level switch of size 1, and 1 sub-sw
      +                          itches
  5428                           ; Switch size 1, requested type "simple"
  5429                           ; Number of cases is 1, Range of values is 0 to 0
  5430                           ; switch strategies available:
  5431                           ; Name         Instructions Cycles
  5432                           ; simple_byte            4     3 (average)
  5433                           ;	Chosen strategy is simple_byte
  5434   002544  5005               	movf	(??i2_gpio_pin_write_logic+1)^0,w,c
  5435   002546  0A00               	xorlw	0	; case 0
  5436   002548  B4D8               	btfsc	status,2,c
  5437   00254A  EFA9  F012         	goto	i2l7177
  5438   00254E  EF3E  F012         	goto	i2l5031
  5439   002552                     i2l7177:
  5440                           
  5441                           ; Switch size 1, requested type "simple"
  5442                           ; Number of cases is 2, Range of values is 0 to 1
  5443                           ; switch strategies available:
  5444                           ; Name         Instructions Cycles
  5445                           ; simple_byte            7     4 (average)
  5446                           ;	Chosen strategy is simple_byte
  5447   002552  5004               	movf	??i2_gpio_pin_write_logic^0,w,c
  5448   002554  0A00               	xorlw	0	; case 0
  5449   002556  B4D8               	btfsc	status,2,c
  5450   002558  EF40  F012         	goto	i2l5033
  5451   00255C  0A01               	xorlw	1	; case 1
  5452   00255E  B4D8               	btfsc	status,2,c
  5453   002560  EF71  F012         	goto	i2l5035
  5454   002564  EF3E  F012         	goto	i2l5031
  5455   002568                     i2l802:
  5456   002568  0012               	return		;funcret
  5457   00256A                     __end_ofi2_gpio_pin_write_logic:
  5458                           	callstack 0
  5459                           
  5460 ;; *************** function _led_toggle_logic *****************
  5461 ;; Defined at:
  5462 ;;		line 70 in file "ECU_Layer/Ecu_led.c"
  5463 ;; Parameters:    Size  Location     Type
  5464 ;;  led             2    7[COMRAM] PTR const struct .
  5465 ;;		 -> led2(1), led1(1), 
  5466 ;; Auto vars:     Size  Location     Type
  5467 ;;  pin_obj         1   10[COMRAM] struct .
  5468 ;;  ret             1    0        unsigned char 
  5469 ;; Return value:  Size  Location     Type
  5470 ;;                  1    wreg      unsigned char 
  5471 ;; Registers used:
  5472 ;;		wreg, fsr2l, fsr2h, status,2, status,0, prodl, prodh, cstack
  5473 ;; Tracked objects:
  5474 ;;		On entry : 0/0
  5475 ;;		On exit  : 0/0
  5476 ;;		Unchanged: 0/0
  5477 ;; Data sizes:     COMRAM   BANK0   BANK1   BANK2   BANK3   BANK4   BANK5   BANK6   BANK7   BANK8   BANK9  BANK10  BANK1
      +1  BANK12  BANK13  BANK14  BANK15
  5478 ;;      Params:         2       0       0       0       0       0       0       0       0       0       0       0       
      +0       0       0       0       0
  5479 ;;      Locals:         1       0       0       0       0       0       0       0       0       0       0       0       
      +0       0       0       0       0
  5480 ;;      Temps:          1       0       0       0       0       0       0       0       0       0       0       0       
      +0       0       0       0       0
  5481 ;;      Totals:         4       0       0       0       0       0       0       0       0       0       0       0       
      +0       0       0       0       0
  5482 ;;Total ram usage:        4 bytes
  5483 ;; Hardware stack levels used: 1
  5484 ;; Hardware stack levels required when called: 1
  5485 ;; This function calls:
  5486 ;;		_gpio_pin_toggle_logic
  5487 ;; This function is called by:
  5488 ;;		_EUSART_IN
  5489 ;;		_EUSART_OUT
  5490 ;; This function uses a non-reentrant model
  5491 ;;
  5492                           
  5493                           	psect	text31
  5494   002944                     __ptext31:
  5495                           	callstack 0
  5496   002944                     _led_toggle_logic:
  5497                           	callstack 22
  5498   002944                     
  5499                           ;ECU_Layer/Ecu_led.c: 72:     if(led == ((void*)0)) ret = (STD_ReturnType)0x00;
  5500   002944  5008               	movf	led_toggle_logic@led^0,w,c
  5501   002946  1009               	iorwf	(led_toggle_logic@led+1)^0,w,c
  5502   002948  A4D8               	btfss	status,2,c
  5503   00294A  EFA9  F014         	goto	i2u442_41
  5504   00294E  EFAB  F014         	goto	i2u442_40
  5505   002952                     i2u442_41:
  5506   002952  EFAD  F014         	goto	i2l304
  5507   002956                     i2u442_40:
  5508   002956  EFDA  F014         	goto	i2l308
  5509   00295A                     i2l304:
  5510                           
  5511                           ;ECU_Layer/Ecu_led.c: 74:        pin_config_t pin_obj = {
  5512   00295A  C059  F00B         	movff	led_toggle_logic@F3058,led_toggle_logic@pin_obj
  5513   00295E  C008  FFD9         	movff	led_toggle_logic@led,fsr2l
  5514   002962  C009  FFDA         	movff	led_toggle_logic@led+1,fsr2h
  5515   002966  50DF               	movf	223,w,c
  5516   002968  0B0F               	andlw	15
  5517   00296A  6E0A               	movwf	??_led_toggle_logic^0,c
  5518   00296C  500B               	movf	led_toggle_logic@pin_obj^0,w,c
  5519   00296E  180A               	xorwf	??_led_toggle_logic^0,w,c
  5520   002970  0BF8               	andlw	-8
  5521   002972  180A               	xorwf	??_led_toggle_logic^0,w,c
  5522   002974  6E0B               	movwf	led_toggle_logic@pin_obj^0,c
  5523   002976  C008  FFD9         	movff	led_toggle_logic@led,fsr2l
  5524   00297A  C009  FFDA         	movff	led_toggle_logic@led+1,fsr2h
  5525   00297E  38DF               	swapf	223,w,c
  5526   002980  0B07               	andlw	7
  5527   002982  6E0A               	movwf	??_led_toggle_logic^0,c
  5528   002984  460A               	rlncf	??_led_toggle_logic^0,f,c
  5529   002986  460A               	rlncf	??_led_toggle_logic^0,f,c
  5530   002988  460A               	rlncf	??_led_toggle_logic^0,f,c
  5531   00298A  500B               	movf	led_toggle_logic@pin_obj^0,w,c
  5532   00298C  180A               	xorwf	??_led_toggle_logic^0,w,c
  5533   00298E  0BC7               	andlw	-57
  5534   002990  180A               	xorwf	??_led_toggle_logic^0,w,c
  5535   002992  6E0B               	movwf	led_toggle_logic@pin_obj^0,c
  5536   002994  9C0B               	bcf	led_toggle_logic@pin_obj^0,6,c
  5537   002996  C008  FFD9         	movff	led_toggle_logic@led,fsr2l
  5538   00299A  C009  FFDA         	movff	led_toggle_logic@led+1,fsr2h
  5539   00299E  AEDF               	btfss	indf2,7,c
  5540   0029A0  D002               	bra	i2u443_45
  5541   0029A2  8E0B               	bsf	led_toggle_logic@pin_obj^0,7,c
  5542   0029A4  D001               	bra	i2u443_47
  5543   0029A6                     i2u443_45:
  5544   0029A6  9E0B               	bcf	led_toggle_logic@pin_obj^0,7,c
  5545   0029A8                     i2u443_47:
  5546   0029A8                     
  5547                           ;ECU_Layer/Ecu_led.c: 80:         gpio_pin_toggle_logic(&pin_obj);
  5548   0029A8  0E0B               	movlw	low led_toggle_logic@pin_obj
  5549   0029AA  6E01               	movwf	gpio_pin_toggle_logic@_pin_config_t^0,c
  5550   0029AC  0E00               	movlw	high led_toggle_logic@pin_obj
  5551   0029AE  6E02               	movwf	(gpio_pin_toggle_logic@_pin_config_t+1)^0,c
  5552   0029B0  EC38  F013         	call	_gpio_pin_toggle_logic	;wreg free
  5553   0029B4                     i2l308:
  5554   0029B4  0012               	return		;funcret
  5555   0029B6                     __end_of_led_toggle_logic:
  5556                           	callstack 0
  5557                           
  5558 ;; *************** function _gpio_pin_toggle_logic *****************
  5559 ;; Defined at:
  5560 ;;		line 114 in file "MCAL_Layer/hal_gpio.c"
  5561 ;; Parameters:    Size  Location     Type
  5562 ;;  _pin_config_    2    0[COMRAM] PTR const struct .
  5563 ;;		 -> led_toggle_logic@pin_obj(1), 
  5564 ;; Auto vars:     Size  Location     Type
  5565 ;;  ret             1    0        unsigned char 
  5566 ;; Return value:  Size  Location     Type
  5567 ;;                  1    wreg      unsigned char 
  5568 ;; Registers used:
  5569 ;;		wreg, fsr2l, fsr2h, status,2, status,0, prodl, prodh
  5570 ;; Tracked objects:
  5571 ;;		On entry : 0/0
  5572 ;;		On exit  : 0/0
  5573 ;;		Unchanged: 0/0
  5574 ;; Data sizes:     COMRAM   BANK0   BANK1   BANK2   BANK3   BANK4   BANK5   BANK6   BANK7   BANK8   BANK9  BANK10  BANK1
      +1  BANK12  BANK13  BANK14  BANK15
  5575 ;;      Params:         2       0       0       0       0       0       0       0       0       0       0       0       
      +0       0       0       0       0
  5576 ;;      Locals:         0       0       0       0       0       0       0       0       0       0       0       0       
      +0       0       0       0       0
  5577 ;;      Temps:          5       0       0       0       0       0       0       0       0       0       0       0       
      +0       0       0       0       0
  5578 ;;      Totals:         7       0       0       0       0       0       0       0       0       0       0       0       
      +0       0       0       0       0
  5579 ;;Total ram usage:        7 bytes
  5580 ;; Hardware stack levels used: 1
  5581 ;; This function calls:
  5582 ;;		Nothing
  5583 ;; This function is called by:
  5584 ;;		_led_toggle_logic
  5585 ;; This function uses a non-reentrant model
  5586 ;;
  5587                           
  5588                           	psect	text32
  5589   002670                     __ptext32:
  5590                           	callstack 0
  5591   002670                     _gpio_pin_toggle_logic:
  5592                           	callstack 22
  5593   002670                     
  5594                           ;MCAL_Layer/hal_gpio.c: 116:     if(_pin_config_t == ((void*)0) || (_pin_config_t->port 
      +                          > 5 - 1) || (_pin_config_t->pin > 8 - 1)) ret = (STD_ReturnType)0x00;
  5595   002670  5001               	movf	gpio_pin_toggle_logic@_pin_config_t^0,w,c
  5596   002672  1002               	iorwf	(gpio_pin_toggle_logic@_pin_config_t+1)^0,w,c
  5597   002674  B4D8               	btfsc	status,2,c
  5598   002676  EF3F  F013         	goto	i2u340_41
  5599   00267A  EF41  F013         	goto	i2u340_40
  5600   00267E                     i2u340_41:
  5601   00267E  EF61  F013         	goto	i2l4587
  5602   002682                     i2u340_40:
  5603   002682  C001  FFD9         	movff	gpio_pin_toggle_logic@_pin_config_t,fsr2l
  5604   002686  C002  FFDA         	movff	gpio_pin_toggle_logic@_pin_config_t+1,fsr2h
  5605   00268A  50DF               	movf	223,w,c
  5606   00268C  0B07               	andlw	7
  5607   00268E  6E03               	movwf	??_gpio_pin_toggle_logic^0,c
  5608   002690  0E05               	movlw	5
  5609   002692  6003               	cpfslt	??_gpio_pin_toggle_logic^0,c
  5610   002694  EF4E  F013         	goto	i2u341_41
  5611   002698  EF50  F013         	goto	i2u341_40
  5612   00269C                     i2u341_41:
  5613   00269C  EF61  F013         	goto	i2l4587
  5614   0026A0                     i2u341_40:
  5615   0026A0  C001  FFD9         	movff	gpio_pin_toggle_logic@_pin_config_t,fsr2l
  5616   0026A4  C002  FFDA         	movff	gpio_pin_toggle_logic@_pin_config_t+1,fsr2h
  5617   0026A8  30DF               	rrcf	223,w,c
  5618   0026AA  32E8               	rrcf	wreg,f,c
  5619   0026AC  32E8               	rrcf	wreg,f,c
  5620   0026AE  0B07               	andlw	7
  5621   0026B0  6E03               	movwf	??_gpio_pin_toggle_logic^0,c
  5622   0026B2  0E07               	movlw	7
  5623   0026B4  6403               	cpfsgt	??_gpio_pin_toggle_logic^0,c
  5624   0026B6  EF5F  F013         	goto	i2u342_41
  5625   0026BA  EF61  F013         	goto	i2u342_40
  5626   0026BE                     i2u342_41:
  5627   0026BE  EF63  F013         	goto	i2l4589
  5628   0026C2                     i2u342_40:
  5629   0026C2                     i2l4587:
  5630   0026C2  EF8F  F013         	goto	i2l816
  5631   0026C6                     i2l4589:
  5632                           
  5633                           ;MCAL_Layer/hal_gpio.c: 118:         (*lat_register[_pin_config_t->port] ^= (1 << _pin_c
      +                          onfig_t->pin));
  5634   0026C6  C001  FFD9         	movff	gpio_pin_toggle_logic@_pin_config_t,fsr2l
  5635   0026CA  C002  FFDA         	movff	gpio_pin_toggle_logic@_pin_config_t+1,fsr2h
  5636   0026CE  30DF               	rrcf	223,w,c
  5637   0026D0  32E8               	rrcf	wreg,f,c
  5638   0026D2  32E8               	rrcf	wreg,f,c
  5639   0026D4  0B07               	andlw	7
  5640   0026D6  6E03               	movwf	??_gpio_pin_toggle_logic^0,c
  5641   0026D8  0E01               	movlw	1
  5642   0026DA  6E04               	movwf	(??_gpio_pin_toggle_logic+1)^0,c
  5643   0026DC  2A03               	incf	??_gpio_pin_toggle_logic^0,f,c
  5644   0026DE  EF73  F013         	goto	i2u343_44
  5645   0026E2                     i2u343_45:
  5646   0026E2  90D8               	bcf	status,0,c
  5647   0026E4  3604               	rlcf	(??_gpio_pin_toggle_logic+1)^0,f,c
  5648   0026E6                     i2u343_44:
  5649   0026E6  2E03               	decfsz	??_gpio_pin_toggle_logic^0,f,c
  5650   0026E8  EF71  F013         	goto	i2u343_45
  5651   0026EC  C001  FFD9         	movff	gpio_pin_toggle_logic@_pin_config_t,fsr2l
  5652   0026F0  C002  FFDA         	movff	gpio_pin_toggle_logic@_pin_config_t+1,fsr2h
  5653   0026F4  50DF               	movf	223,w,c
  5654   0026F6  0B07               	andlw	7
  5655   0026F8  6E05               	movwf	(??_gpio_pin_toggle_logic+2)^0,c
  5656   0026FA  5005               	movf	(??_gpio_pin_toggle_logic+2)^0,w,c
  5657   0026FC  0D02               	mullw	2
  5658   0026FE  0E8A               	movlw	low _lat_register
  5659   002700  24F3               	addwf	243,w,c
  5660   002702  6ED9               	movwf	fsr2l,c
  5661   002704  0E00               	movlw	high _lat_register
  5662   002706  20F4               	addwfc	prodh,w,c
  5663   002708  6EDA               	movwf	fsr2h,c
  5664   00270A  CFDE F006          	movff	postinc2,??_gpio_pin_toggle_logic+3
  5665   00270E  CFDD F007          	movff	postdec2,??_gpio_pin_toggle_logic+4
  5666   002712  C006  FFD9         	movff	??_gpio_pin_toggle_logic+3,fsr2l
  5667   002716  C007  FFDA         	movff	??_gpio_pin_toggle_logic+4,fsr2h
  5668   00271A  5004               	movf	(??_gpio_pin_toggle_logic+1)^0,w,c
  5669   00271C  1ADF               	xorwf	indf2,f,c
  5670   00271E                     i2l816:
  5671   00271E  0012               	return		;funcret
  5672   002720                     __end_of_gpio_pin_toggle_logic:
  5673                           	callstack 0
  5674                           
  5675 ;; *************** function _EUSART_ASYNC_ReadByte_NonBlocking *****************
  5676 ;; Defined at:
  5677 ;;		line 75 in file "MCAL_Layer/usart/hal_usart.c"
  5678 ;; Parameters:    Size  Location     Type
  5679 ;;  _eusart         2    0[COMRAM] PTR const struct .
  5680 ;;		 -> usart_obj(20), 
  5681 ;;  _data           2    2[COMRAM] PTR unsigned char 
  5682 ;;		 -> value_usart(1), 
  5683 ;; Auto vars:     Size  Location     Type
  5684 ;;  ret             1    4[COMRAM] unsigned char 
  5685 ;; Return value:  Size  Location     Type
  5686 ;;                  1    wreg      unsigned char 
  5687 ;; Registers used:
  5688 ;;		wreg, fsr2l, fsr2h, status,2, status,0
  5689 ;; Tracked objects:
  5690 ;;		On entry : 0/0
  5691 ;;		On exit  : 0/0
  5692 ;;		Unchanged: 0/0
  5693 ;; Data sizes:     COMRAM   BANK0   BANK1   BANK2   BANK3   BANK4   BANK5   BANK6   BANK7   BANK8   BANK9  BANK10  BANK1
      +1  BANK12  BANK13  BANK14  BANK15
  5694 ;;      Params:         4       0       0       0       0       0       0       0       0       0       0       0       
      +0       0       0       0       0
  5695 ;;      Locals:         1       0       0       0       0       0       0       0       0       0       0       0       
      +0       0       0       0       0
  5696 ;;      Temps:          0       0       0       0       0       0       0       0       0       0       0       0       
      +0       0       0       0       0
  5697 ;;      Totals:         5       0       0       0       0       0       0       0       0       0       0       0       
      +0       0       0       0       0
  5698 ;;Total ram usage:        5 bytes
  5699 ;; Hardware stack levels used: 1
  5700 ;; This function calls:
  5701 ;;		Nothing
  5702 ;; This function is called by:
  5703 ;;		_EUSART_OUT
  5704 ;; This function uses a non-reentrant model
  5705 ;;
  5706                           
  5707                           	psect	text33
  5708   002AC2                     __ptext33:
  5709                           	callstack 0
  5710   002AC2                     _EUSART_ASYNC_ReadByte_NonBlocking:
  5711                           	callstack 23
  5712   002AC2                     
  5713                           ;MCAL_Layer/usart/hal_usart.c: 76:     STD_ReturnType ret = (STD_ReturnType)0x01;
  5714   002AC2  0E01               	movlw	1
  5715   002AC4  6E05               	movwf	EUSART_ASYNC_ReadByte_NonBlocking@ret^0,c
  5716   002AC6                     
  5717                           ;MCAL_Layer/usart/hal_usart.c: 77:     if(_eusart == ((void*)0)) ret = (STD_ReturnType)0
      +                          x00;
  5718   002AC6  5001               	movf	EUSART_ASYNC_ReadByte_NonBlocking@_eusart^0,w,c
  5719   002AC8  1002               	iorwf	(EUSART_ASYNC_ReadByte_NonBlocking@_eusart+1)^0,w,c
  5720   002ACA  A4D8               	btfss	status,2,c
  5721   002ACC  EF6A  F015         	goto	i2u450_41
  5722   002AD0  EF6C  F015         	goto	i2u450_40
  5723   002AD4                     i2u450_41:
  5724   002AD4  EF70  F015         	goto	i2l671
  5725   002AD8                     i2u450_40:
  5726   002AD8                     i2l5193:
  5727   002AD8  0E00               	movlw	0
  5728   002ADA  6E05               	movwf	EUSART_ASYNC_ReadByte_NonBlocking@ret^0,c
  5729   002ADC  EF7D  F015         	goto	i2l672
  5730   002AE0                     i2l671:
  5731                           
  5732                           ;MCAL_Layer/usart/hal_usart.c: 79:         if(PIR1bits.RCIF == 1) *(_data) = RCREG;
  5733   002AE0  AA9E               	btfss	158,5,c	;volatile
  5734   002AE2  EF75  F015         	goto	i2u451_41
  5735   002AE6  EF77  F015         	goto	i2u451_40
  5736   002AEA                     i2u451_41:
  5737   002AEA  EF6C  F015         	goto	i2l5193
  5738   002AEE                     i2u451_40:
  5739   002AEE  C003  FFD9         	movff	EUSART_ASYNC_ReadByte_NonBlocking@_data,fsr2l
  5740   002AF2  C004  FFDA         	movff	EUSART_ASYNC_ReadByte_NonBlocking@_data+1,fsr2h
  5741   002AF6  CFAE FFDF          	movff	4014,indf2	;volatile
  5742   002AFA                     i2l672:
  5743                           
  5744                           ;MCAL_Layer/usart/hal_usart.c: 83:     return ret;
  5745   002AFA  5005               	movf	EUSART_ASYNC_ReadByte_NonBlocking@ret^0,w,c
  5746   002AFC  0012               	return		;funcret
  5747   002AFE                     __end_of_EUSART_ASYNC_ReadByte_NonBlocking:
  5748                           	callstack 0
  5749                           
  5750 ;; *************** function _CCP2_ISR *****************
  5751 ;; Defined at:
  5752 ;;		line 374 in file "MCAL_Layer/CCP1/ccp.c"
  5753 ;; Parameters:    Size  Location     Type
  5754 ;;		None
  5755 ;; Auto vars:     Size  Location     Type
  5756 ;;		None
  5757 ;; Return value:  Size  Location     Type
  5758 ;;                  1    wreg      void 
  5759 ;; Registers used:
  5760 ;;		None
  5761 ;; Tracked objects:
  5762 ;;		On entry : 0/0
  5763 ;;		On exit  : 0/0
  5764 ;;		Unchanged: 0/0
  5765 ;; Data sizes:     COMRAM   BANK0   BANK1   BANK2   BANK3   BANK4   BANK5   BANK6   BANK7   BANK8   BANK9  BANK10  BANK1
      +1  BANK12  BANK13  BANK14  BANK15
  5766 ;;      Params:         0       0       0       0       0       0       0       0       0       0       0       0       
      +0       0       0       0       0
  5767 ;;      Locals:         0       0       0       0       0       0       0       0       0       0       0       0       
      +0       0       0       0       0
  5768 ;;      Temps:          0       0       0       0       0       0       0       0       0       0       0       0       
      +0       0       0       0       0
  5769 ;;      Totals:         0       0       0       0       0       0       0       0       0       0       0       0       
      +0       0       0       0       0
  5770 ;;Total ram usage:        0 bytes
  5771 ;; Hardware stack levels used: 1
  5772 ;; This function calls:
  5773 ;;		Nothing
  5774 ;; This function is called by:
  5775 ;;		_InterruptManager
  5776 ;; This function uses a non-reentrant model
  5777 ;;
  5778                           
  5779                           	psect	text34
  5780   002C18                     __ptext34:
  5781                           	callstack 0
  5782   002C18                     _CCP2_ISR:
  5783                           	callstack 25
  5784   002C18                     
  5785                           ;MCAL_Layer/CCP1/ccp.c: 375:     (PIR2bits.CCP2IF = 0);
  5786   002C18  90A1               	bcf	161,0,c	;volatile
  5787   002C1A  0012               	return		;funcret
  5788   002C1C                     __end_of_CCP2_ISR:
  5789                           	callstack 0
  5790                           
  5791 ;; *************** function _CCP1_ISR *****************
  5792 ;; Defined at:
  5793 ;;		line 365 in file "MCAL_Layer/CCP1/ccp.c"
  5794 ;; Parameters:    Size  Location     Type
  5795 ;;		None
  5796 ;; Auto vars:     Size  Location     Type
  5797 ;;		None
  5798 ;; Return value:  Size  Location     Type
  5799 ;;                  1    wreg      void 
  5800 ;; Registers used:
  5801 ;;		None
  5802 ;; Tracked objects:
  5803 ;;		On entry : 0/0
  5804 ;;		On exit  : 0/0
  5805 ;;		Unchanged: 0/0
  5806 ;; Data sizes:     COMRAM   BANK0   BANK1   BANK2   BANK3   BANK4   BANK5   BANK6   BANK7   BANK8   BANK9  BANK10  BANK1
      +1  BANK12  BANK13  BANK14  BANK15
  5807 ;;      Params:         0       0       0       0       0       0       0       0       0       0       0       0       
      +0       0       0       0       0
  5808 ;;      Locals:         0       0       0       0       0       0       0       0       0       0       0       0       
      +0       0       0       0       0
  5809 ;;      Temps:          0       0       0       0       0       0       0       0       0       0       0       0       
      +0       0       0       0       0
  5810 ;;      Totals:         0       0       0       0       0       0       0       0       0       0       0       0       
      +0       0       0       0       0
  5811 ;;Total ram usage:        0 bytes
  5812 ;; Hardware stack levels used: 1
  5813 ;; This function calls:
  5814 ;;		Nothing
  5815 ;; This function is called by:
  5816 ;;		_InterruptManager
  5817 ;; This function uses a non-reentrant model
  5818 ;;
  5819                           
  5820                           	psect	text35
  5821   002C1C                     __ptext35:
  5822                           	callstack 0
  5823   002C1C                     _CCP1_ISR:
  5824                           	callstack 25
  5825   002C1C                     
  5826                           ;MCAL_Layer/CCP1/ccp.c: 366:     (PIR1bits.CCP1IF = 0);
  5827   002C1C  949E               	bcf	158,2,c	;volatile
  5828   002C1E  0012               	return		;funcret
  5829   002C20                     __end_of_CCP1_ISR:
  5830                           	callstack 0
  5831                           
  5832 ;; *************** function _ADC_ISR *****************
  5833 ;; Defined at:
  5834 ;;		line 268 in file "MCAL_Layer/ADC/hal_adc.c"
  5835 ;; Parameters:    Size  Location     Type
  5836 ;;		None
  5837 ;; Auto vars:     Size  Location     Type
  5838 ;;		None
  5839 ;; Return value:  Size  Location     Type
  5840 ;;                  1    wreg      void 
  5841 ;; Registers used:
  5842 ;;		None
  5843 ;; Tracked objects:
  5844 ;;		On entry : 0/0
  5845 ;;		On exit  : 0/0
  5846 ;;		Unchanged: 0/0
  5847 ;; Data sizes:     COMRAM   BANK0   BANK1   BANK2   BANK3   BANK4   BANK5   BANK6   BANK7   BANK8   BANK9  BANK10  BANK1
      +1  BANK12  BANK13  BANK14  BANK15
  5848 ;;      Params:         0       0       0       0       0       0       0       0       0       0       0       0       
      +0       0       0       0       0
  5849 ;;      Locals:         0       0       0       0       0       0       0       0       0       0       0       0       
      +0       0       0       0       0
  5850 ;;      Temps:          0       0       0       0       0       0       0       0       0       0       0       0       
      +0       0       0       0       0
  5851 ;;      Totals:         0       0       0       0       0       0       0       0       0       0       0       0       
      +0       0       0       0       0
  5852 ;;Total ram usage:        0 bytes
  5853 ;; Hardware stack levels used: 1
  5854 ;; This function calls:
  5855 ;;		Nothing
  5856 ;; This function is called by:
  5857 ;;		_InterruptManager
  5858 ;; This function uses a non-reentrant model
  5859 ;;
  5860                           
  5861                           	psect	text36
  5862   002C20                     __ptext36:
  5863                           	callstack 0
  5864   002C20                     _ADC_ISR:
  5865                           	callstack 25
  5866   002C20                     
  5867                           ;MCAL_Layer/ADC/hal_adc.c: 269:     (PIR1bits.ADIF = 0);
  5868   002C20  9C9E               	bcf	158,6,c	;volatile
  5869   002C22  0012               	return		;funcret
  5870   002C24                     __end_of_ADC_ISR:
  5871                           	callstack 0
  5872                           
  5873                           	psect	text37
  5874   000000                     __ptext37:
  5875                           	callstack 0
  5876   000000                     
  5877                           	psect	rparam
  5878   000000                     
  5879                           	psect	temp
  5880   000069                     btemp:
  5881                           	callstack 0
  5882   000069                     	ds	1
  5883   000000                     int$flags	set	btemp
  5884   000000                     wtemp8	set	btemp+1
  5885   000000                     ttemp5	set	btemp+1
  5886   000000                     ttemp6	set	btemp+4
  5887   000000                     ttemp7	set	btemp+8
  5888                           
  5889                           	psect	idloc
  5890                           
  5891                           ;Config register IDLOC0 @ 0x200000
  5892                           ;	unspecified, using default values
  5893   200000                     	org	2097152
  5894   200000  FF                 	db	255
  5895                           
  5896                           ;Config register IDLOC1 @ 0x200001
  5897                           ;	unspecified, using default values
  5898   200001                     	org	2097153
  5899   200001  FF                 	db	255
  5900                           
  5901                           ;Config register IDLOC2 @ 0x200002
  5902                           ;	unspecified, using default values
  5903   200002                     	org	2097154
  5904   200002  FF                 	db	255
  5905                           
  5906                           ;Config register IDLOC3 @ 0x200003
  5907                           ;	unspecified, using default values
  5908   200003                     	org	2097155
  5909   200003  FF                 	db	255
  5910                           
  5911                           ;Config register IDLOC4 @ 0x200004
  5912                           ;	unspecified, using default values
  5913   200004                     	org	2097156
  5914   200004  FF                 	db	255
  5915                           
  5916                           ;Config register IDLOC5 @ 0x200005
  5917                           ;	unspecified, using default values
  5918   200005                     	org	2097157
  5919   200005  FF                 	db	255
  5920                           
  5921                           ;Config register IDLOC6 @ 0x200006
  5922                           ;	unspecified, using default values
  5923   200006                     	org	2097158
  5924   200006  FF                 	db	255
  5925                           
  5926                           ;Config register IDLOC7 @ 0x200007
  5927                           ;	unspecified, using default values
  5928   200007                     	org	2097159
  5929   200007  FF                 	db	255
  5930                           
  5931                           	psect	config
  5932                           
  5933                           ; Padding undefined space
  5934   300000                     	org	3145728
  5935   300000  FF                 	db	255
  5936                           
  5937                           ;Config register CONFIG1H @ 0x300001
  5938                           ;	Oscillator Selection bits
  5939                           ;	OSC = RCIO6, External RC oscillator, port function on RA6
  5940                           ;	Fail-Safe Clock Monitor Enable bit
  5941                           ;	FCMEN = OFF, Fail-Safe Clock Monitor disabled
  5942                           ;	Internal/External Oscillator Switchover bit
  5943                           ;	IESO = OFF, Oscillator Switchover mode disabled
  5944   300001                     	org	3145729
  5945   300001  07                 	db	7
  5946                           
  5947                           ;Config register CONFIG2L @ 0x300002
  5948                           ;	Power-up Timer Enable bit
  5949                           ;	PWRT = OFF, PWRT disabled
  5950                           ;	Brown-out Reset Enable bits
  5951                           ;	BOREN = SBORDIS, Brown-out Reset enabled in hardware only (SBOREN is disabled)
  5952                           ;	Brown Out Reset Voltage bits
  5953                           ;	BORV = 3, Minimum setting
  5954   300002                     	org	3145730
  5955   300002  1F                 	db	31
  5956                           
  5957                           ;Config register CONFIG2H @ 0x300003
  5958                           ;	Watchdog Timer Enable bit
  5959                           ;	WDT = ON, WDT enabled
  5960                           ;	Watchdog Timer Postscale Select bits
  5961                           ;	WDTPS = 32768, 1:32768
  5962   300003                     	org	3145731
  5963   300003  1F                 	db	31
  5964                           
  5965                           ; Padding undefined space
  5966   300004                     	org	3145732
  5967   300004  FF                 	db	255
  5968                           
  5969                           ;Config register CONFIG3H @ 0x300005
  5970                           ;	CCP2 MUX bit
  5971                           ;	CCP2MX = PORTC, CCP2 input/output is multiplexed with RC1
  5972                           ;	PORTB A/D Enable bit
  5973                           ;	PBADEN = OFF, PORTB<4:0> pins are configured as digital I/O on Reset
  5974                           ;	Low-Power Timer1 Oscillator Enable bit
  5975                           ;	LPT1OSC = OFF, Timer1 configured for higher power operation
  5976                           ;	MCLR Pin Enable bit
  5977                           ;	MCLRE = ON, MCLR pin enabled; RE3 input pin disabled
  5978   300005                     	org	3145733
  5979   300005  81                 	db	129
  5980                           
  5981                           ;Config register CONFIG4L @ 0x300006
  5982                           ;	Stack Full/Underflow Reset Enable bit
  5983                           ;	STVREN = ON, Stack full/underflow will cause Reset
  5984                           ;	Single-Supply ICSP Enable bit
  5985                           ;	LVP = ON, Single-Supply ICSP enabled
  5986                           ;	Extended Instruction Set Enable bit
  5987                           ;	XINST = OFF, Instruction set extension and Indexed Addressing mode disabled (Legacy mo
      +                          de)
  5988                           ;	Background Debugger Enable bit
  5989                           ;	DEBUG = 0x1, unprogrammed default
  5990   300006                     	org	3145734
  5991   300006  85                 	db	133
  5992                           
  5993                           ; Padding undefined space
  5994   300007                     	org	3145735
  5995   300007  FF                 	db	255
  5996                           
  5997                           ;Config register CONFIG5L @ 0x300008
  5998                           ;	Code Protection bit
  5999                           ;	CP0 = OFF, Block 0 (000800-003FFFh) not code-protected
  6000                           ;	Code Protection bit
  6001                           ;	CP1 = OFF, Block 1 (004000-007FFFh) not code-protected
  6002                           ;	Code Protection bit
  6003                           ;	CP2 = OFF, Block 2 (008000-00BFFFh) not code-protected
  6004                           ;	Code Protection bit
  6005                           ;	CP3 = OFF, Block 3 (00C000-00FFFFh) not code-protected
  6006   300008                     	org	3145736
  6007   300008  0F                 	db	15
  6008                           
  6009                           ;Config register CONFIG5H @ 0x300009
  6010                           ;	Boot Block Code Protection bit
  6011                           ;	CPB = OFF, Boot block (000000-0007FFh) not code-protected
  6012                           ;	Data EEPROM Code Protection bit
  6013                           ;	CPD = OFF, Data EEPROM not code-protected
  6014   300009                     	org	3145737
  6015   300009  C0                 	db	192
  6016                           
  6017                           ;Config register CONFIG6L @ 0x30000A
  6018                           ;	Write Protection bit
  6019                           ;	WRT0 = OFF, Block 0 (000800-003FFFh) not write-protected
  6020                           ;	Write Protection bit
  6021                           ;	WRT1 = OFF, Block 1 (004000-007FFFh) not write-protected
  6022                           ;	Write Protection bit
  6023                           ;	WRT2 = OFF, Block 2 (008000-00BFFFh) not write-protected
  6024                           ;	Write Protection bit
  6025                           ;	WRT3 = OFF, Block 3 (00C000-00FFFFh) not write-protected
  6026   30000A                     	org	3145738
  6027   30000A  0F                 	db	15
  6028                           
  6029                           ;Config register CONFIG6H @ 0x30000B
  6030                           ;	Configuration Register Write Protection bit
  6031                           ;	WRTC = OFF, Configuration registers (300000-3000FFh) not write-protected
  6032                           ;	Boot Block Write Protection bit
  6033                           ;	WRTB = OFF, Boot Block (000000-0007FFh) not write-protected
  6034                           ;	Data EEPROM Write Protection bit
  6035                           ;	WRTD = OFF, Data EEPROM not write-protected
  6036   30000B                     	org	3145739
  6037   30000B  E0                 	db	224
  6038                           
  6039                           ;Config register CONFIG7L @ 0x30000C
  6040                           ;	Table Read Protection bit
  6041                           ;	EBTR0 = OFF, Block 0 (000800-003FFFh) not protected from table reads executed in other
      +                           blocks
  6042                           ;	Table Read Protection bit
  6043                           ;	EBTR1 = OFF, Block 1 (004000-007FFFh) not protected from table reads executed in other
      +                           blocks
  6044                           ;	Table Read Protection bit
  6045                           ;	EBTR2 = OFF, Block 2 (008000-00BFFFh) not protected from table reads executed in other
      +                           blocks
  6046                           ;	Table Read Protection bit
  6047                           ;	EBTR3 = OFF, Block 3 (00C000-00FFFFh) not protected from table reads executed in other
      +                           blocks
  6048   30000C                     	org	3145740
  6049   30000C  0F                 	db	15
  6050                           
  6051                           ;Config register CONFIG7H @ 0x30000D
  6052                           ;	Boot Block Table Read Protection bit
  6053                           ;	EBTRB = OFF, Boot Block (000000-0007FFh) not protected from table reads executed in ot
      +                          her blocks
  6054   30000D                     	org	3145741
  6055   30000D  40                 	db	64
  6056                           tosu	equ	0xFFF
  6057                           tosh	equ	0xFFE
  6058                           tosl	equ	0xFFD
  6059                           stkptr	equ	0xFFC
  6060                           pclatu	equ	0xFFB
  6061                           pclath	equ	0xFFA
  6062                           pcl	equ	0xFF9
  6063                           tblptru	equ	0xFF8
  6064                           tblptrh	equ	0xFF7
  6065                           tblptrl	equ	0xFF6
  6066                           tablat	equ	0xFF5
  6067                           prodh	equ	0xFF4
  6068                           prodl	equ	0xFF3
  6069                           indf0	equ	0xFEF
  6070                           postinc0	equ	0xFEE
  6071                           postdec0	equ	0xFED
  6072                           preinc0	equ	0xFEC
  6073                           plusw0	equ	0xFEB
  6074                           fsr0h	equ	0xFEA
  6075                           fsr0l	equ	0xFE9
  6076                           wreg	equ	0xFE8
  6077                           indf1	equ	0xFE7
  6078                           postinc1	equ	0xFE6
  6079                           postdec1	equ	0xFE5
  6080                           preinc1	equ	0xFE4
  6081                           plusw1	equ	0xFE3
  6082                           fsr1h	equ	0xFE2
  6083                           fsr1l	equ	0xFE1
  6084                           bsr	equ	0xFE0
  6085                           indf2	equ	0xFDF
  6086                           postinc2	equ	0xFDE
  6087                           postdec2	equ	0xFDD
  6088                           preinc2	equ	0xFDC
  6089                           plusw2	equ	0xFDB
  6090                           fsr2h	equ	0xFDA
  6091                           fsr2l	equ	0xFD9
  6092                           status	equ	0xFD8

Data Sizes:
    Strings     3
    Constant    16
    Data        53
    BSS         61
    Persistent  0
    Stack       0

Auto Spaces:
    Space          Size  Autos    Used
    COMRAM          126     68     104
    BANK0           128     22     100
    BANK1           256      0       0
    BANK2           256      0       0
    BANK3           256      0       0
    BANK4           256      0       0
    BANK5           256      0       0
    BANK6           256      0       0
    BANK7           256      0       0
    BANK8           256      0       0
    BANK9           256      0       0
    BANK10          256      0       0
    BANK11          256      0       0
    BANK12          256      0       0
    BANK13          256      0       0
    BANK14          256      0       0
    BANK15          128      0       0

Pointer List with Targets:

    vfprintf$2	PTR PTR void  size(2) Largest target is 2
		 -> sprintf@ap(COMRAM[2]), 

    vfprintf$1	PTR const unsigned char  size(2) Largest target is 3
		 -> STR_3(CODE[3]), STR_2(CODE[3]), STR_1(CODE[3]), 

    vfprintf$0	PTR struct _IO_FILE size(2) Largest target is 11
		 -> sprintf@f(COMRAM[11]), 

    S4040$source	PTR const unsigned char  size(2) Largest target is 0

    f...source	PTR const unsigned char  size(2) Largest target is 0

    S4040$buffer	PTR unsigned char  size(2) Largest target is 0

    f...buffer	PTR unsigned char  size(2) Largest target is 0

    usart_obj.EUSART_OverrunErrorHandler	PTR FTN()void  size(2) Largest target is 1
		 -> Absolute function(), 

    usart_obj.EUSART_FramingErrorHandler	PTR FTN()void  size(2) Largest target is 1
		 -> Absolute function(), 

    usart_obj.EUSART_RX_DefaultInterruptHandler	PTR FTN()void  size(2) Largest target is 1
		 -> EUSART_OUT(), 

    usart_obj.EUSART_TX_DefaultInterruptHandler	PTR FTN()void  size(2) Largest target is 1
		 -> EUSART_IN(), 

    Timer3_mode_select@_timer.TIMER3_InterruptHandler	PTR FTN()void  size(2) Largest target is 0

    TIMER3_InterruptHandler	PTR FTN()void  size(2) Largest target is 1
		 -> Absolute function(), 

    S3316$TIMER3_InterruptHandler	PTR FTN()void  size(2) Largest target is 0

    timer3_init@_timer.TIMER3_InterruptHandler	PTR FTN()void  size(2) Largest target is 0

    TIMER2_InterruptHandler	PTR FTN()void  size(2) Largest target is 1
		 -> Absolute function(), 

    S3187$TIMER2_InterruptHandler	PTR FTN()void  size(2) Largest target is 0

    timer2_init@_timer.TIMER2_InterruptHandler	PTR FTN()void  size(2) Largest target is 0

    Timer1_mode_select@_timer.TIMER1_InterruptHandler	PTR FTN()void  size(2) Largest target is 0

    TIMER1_InterruptHandler	PTR FTN()void  size(2) Largest target is 1
		 -> Absolute function(), 

    S3001$TIMER1_InterruptHandler	PTR FTN()void  size(2) Largest target is 0

    timer1_init@_timer.TIMER1_InterruptHandler	PTR FTN()void  size(2) Largest target is 0

    Timer0_register_size@_timer.TIMER0_InterruptHandler	PTR FTN()void  size(2) Largest target is 0

    Timer0_mode_select@_timer.TIMER0_InterruptHandler	PTR FTN()void  size(2) Largest target is 0

    Timer0_prescaler_config@_timer.TIMER0_InterruptHandler	PTR FTN()void  size(2) Largest target is 0

    TIMER0_InterruptHandler	PTR FTN()void  size(2) Largest target is 1
		 -> Absolute function(), 

    S2836$TIMER0_InterruptHandler	PTR FTN()void  size(2) Largest target is 0

    timer0_init@_timer.TIMER0_InterruptHandler	PTR FTN()void  size(2) Largest target is 0

    Interrupt_INTx_SetInterruptHandler@interrupt_obj.Interrupt_Handler	PTR FTN()void  size(2) Largest target is 0

    Interrupt_INTx_Clear_Flag@interrupt_obj.Interrupt_Handler	PTR FTN()void  size(2) Largest target is 0

    Interrupt_INTx_Pin@interrupt_obj.Interrupt_Handler	PTR FTN()void  size(2) Largest target is 0

    Interrupt_INTx_Edge_init@interrupt_obj.Interrupt_Handler	PTR FTN()void  size(2) Largest target is 0

    Interrupt_INTx_Disable@interrupt_obj.Interrupt_Handler	PTR FTN()void  size(2) Largest target is 0

    S2250$Interrupt_Handler	PTR FTN()void  size(2) Largest target is 0

    Interrupt_INTx_Enable@interrupt_obj.Interrupt_Handler	PTR FTN()void  size(2) Largest target is 0

    S2361$Interrupt_Handler	PTR FTN()void  size(2) Largest target is 0

    Interrupt_RBx_Init@interrupt_obj.Interrupt_Handler	PTR FTN()void  size(2) Largest target is 0

    RB7_InterruptHandler	PTR FTN()void  size(2) Largest target is 1
		 -> Absolute function(), 

    RB6_InterruptHandler	PTR FTN()void  size(2) Largest target is 1
		 -> Absolute function(), 

    RB5_InterruptHandler	PTR FTN()void  size(2) Largest target is 1
		 -> Absolute function(), 

    RB4_InterruptHandler	PTR FTN()void  size(2) Largest target is 1
		 -> Absolute function(), 

    INT2_InterruptHandler	PTR FTN()void  size(2) Largest target is 1
		 -> Absolute function(), 

    INT1_InterruptHandler	PTR FTN()void  size(2) Largest target is 1
		 -> Absolute function(), 

    INT0_InterruptHandler	PTR FTN()void  size(2) Largest target is 1
		 -> Absolute function(), 

    gpio_pin_toggle_logic@_pin_config_t	PTR const struct . size(2) Largest target is 1
		 -> led_toggle_logic@pin_obj(COMRAM[1]), 

    gpio_pin_write_logic@_pin_config_t	PTR const struct . size(2) Largest target is 1
		 -> relay_turn_off@relayy(COMRAM[1]), relay_turn_on@relayy(COMRAM[1]), relay_initialize@relayy(COMRAM[1]), led_turn_off@pin_obj(COMRAM[1]), 
		 -> led_turn_on@pin_obj(COMRAM[1]), led_initialize@pin_obj(COMRAM[1]), Dc_motor_stop@dc_motor_pin_2(COMRAM[1]), Dc_motor_stop@dc_motor_pin_1(COMRAM[1]), 
		 -> Dc_motor_turn_right@dc_motor_pin_2(COMRAM[1]), Dc_motor_turn_right@dc_motor_pin_1(COMRAM[1]), Dc_motor_turn_left@dc_motor_pin_2(COMRAM[1]), Dc_motor_turn_left@dc_motor_pin_1(COMRAM[1]), 
		 -> Dc_motor_initialize@dc_motor_pin_2(COMRAM[1]), Dc_motor_initialize@dc_motor_pin_1(COMRAM[1]), 

    gpio_pin_direction_init@_pin_config_t	PTR const struct . size(2) Largest target is 1
		 -> relay_initialize@relayy(COMRAM[1]), led_initialize@pin_obj(COMRAM[1]), Dc_motor_initialize@dc_motor_pin_2(COMRAM[1]), Dc_motor_initialize@dc_motor_pin_1(COMRAM[1]), 

    port_register	PTR volatile unsigned char [5] size(2) Largest target is 1
		 -> PORTE(BITBIGSFRlllll[1]), PORTD(BITBIGSFRlllll[1]), PORTC(BITBIGSFRlllll[1]), PORTB(BITBIGSFRlllll[1]), 
		 -> PORTA(BITBIGSFRlllll[1]), 

    lat_register	PTR volatile unsigned char [5] size(2) Largest target is 1
		 -> LATE(BITBIGSFRllllh[1]), LATD(BITBIGSFRllllh[1]), LATC(BITBIGSFRllllh[1]), LATB(BITBIGSFRllllh[1]), 
		 -> LATA(BITBIGSFRlllll[1]), 

    tris_register	PTR volatile unsigned char [5] size(2) Largest target is 1
		 -> TRISD(ABS[1]), TRISC(SFR[1]), TRISB(ABS[1]), TRISE(ABS[1]), 
		 -> TRISA(BITBIGSFRlllll[1]), 

    EUSART_OverrunErrorHandler	PTR FTN()void  size(2) Largest target is 1
		 -> Absolute function(), 

    EUSART_FramingErrorHandler	PTR FTN()void  size(2) Largest target is 1
		 -> Absolute function(), 

    EUSART_RX_InterruptHandler	PTR FTN()void  size(2) Largest target is 1
		 -> EUSART_OUT(), Absolute function(), 

    eusart_async_rx_init@_eusart.EUSART_OverrunErrorHandler	PTR FTN()void  size(2) Largest target is 1
		 -> Absolute function(), 

    eusart_async_rx_init@_eusart.EUSART_FramingErrorHandler	PTR FTN()void  size(2) Largest target is 1
		 -> Absolute function(), 

    eusart_async_rx_init@_eusart.EUSART_RX_DefaultInterruptHandler	PTR FTN()void  size(2) Largest target is 1
		 -> EUSART_OUT(), 

    eusart_async_rx_init@_eusart.EUSART_TX_DefaultInterruptHandler	PTR FTN()void  size(2) Largest target is 1
		 -> EUSART_IN(), 

    eusart_async_rx_init@_eusart	PTR const struct . size(2) Largest target is 20
		 -> usart_obj(BANK0[20]), 

    EUSART_TX_InterruptHandler	PTR FTN()void  size(2) Largest target is 1
		 -> EUSART_IN(), Absolute function(), 

    eusart_async_tx_init@_eusart.EUSART_OverrunErrorHandler	PTR FTN()void  size(2) Largest target is 1
		 -> Absolute function(), 

    eusart_async_tx_init@_eusart.EUSART_FramingErrorHandler	PTR FTN()void  size(2) Largest target is 1
		 -> Absolute function(), 

    eusart_async_tx_init@_eusart.EUSART_RX_DefaultInterruptHandler	PTR FTN()void  size(2) Largest target is 1
		 -> EUSART_OUT(), 

    eusart_async_tx_init@_eusart.EUSART_TX_DefaultInterruptHandler	PTR FTN()void  size(2) Largest target is 1
		 -> EUSART_IN(), 

    eusart_async_tx_init@_eusart	PTR const struct . size(2) Largest target is 20
		 -> usart_obj(BANK0[20]), 

    S1701$EUSART_OverrunErrorHandler	PTR FTN()void  size(2) Largest target is 1
		 -> Absolute function(), 

    EUSART_BUADRATE_Calculation@_eusart.EUSART_OverrunErrorHandler	PTR FTN()void  size(2) Largest target is 1
		 -> Absolute function(), 

    S1701$EUSART_FramingErrorHandler	PTR FTN()void  size(2) Largest target is 1
		 -> Absolute function(), 

    EUSART_BUADRATE_Calculation@_eusart.EUSART_FramingErrorHandler	PTR FTN()void  size(2) Largest target is 1
		 -> Absolute function(), 

    S1701$EUSART_RX_DefaultInterruptHandler	PTR FTN()void  size(2) Largest target is 1
		 -> EUSART_OUT(), 

    EUSART_BUADRATE_Calculation@_eusart.EUSART_RX_DefaultInterruptHandler	PTR FTN()void  size(2) Largest target is 1
		 -> EUSART_OUT(), 

    S1701$EUSART_TX_DefaultInterruptHandler	PTR FTN()void  size(2) Largest target is 1
		 -> EUSART_IN(), 

    EUSART_BUADRATE_Calculation@_eusart.EUSART_TX_DefaultInterruptHandler	PTR FTN()void  size(2) Largest target is 1
		 -> EUSART_IN(), 

    EUSART_BUADRATE_Calculation@_eusart	PTR const struct . size(2) Largest target is 20
		 -> usart_obj(BANK0[20]), 

    EUSART_ASYNC_ReadByte_NonBlocking@_data	PTR unsigned char  size(2) Largest target is 1
		 -> value_usart(COMRAM[1]), 

    EUSART_ASYNC_ReadByte_NonBlocking@_eusart	PTR const struct . size(2) Largest target is 20
		 -> usart_obj(BANK0[20]), 

    EUSART_ASYNC_Init@_eusart	PTR const struct . size(2) Largest target is 20
		 -> usart_obj(BANK0[20]), 

    CCP_CAPTURE_TIMER_SELECT@_ccp1_object.CCP2_InterruptHandler	PTR FTN()void  size(2) Largest target is 0

    CCP_CAPTURE_TIMER_SELECT@_ccp1_object.CCP1_InterruptHandler	PTR FTN()void  size(2) Largest target is 0

    CCP_CompareMode_set_Value@_ccp1_object.CCP2_InterruptHandler	PTR FTN()void  size(2) Largest target is 0

    CCP_CompareMode_set_Value@_ccp1_object.CCP1_InterruptHandler	PTR FTN()void  size(2) Largest target is 0

    CCP_IsCompareCompelete@_ccp1_object.CCP2_InterruptHandler	PTR FTN()void  size(2) Largest target is 0

    CCP_IsCompareCompelete@_ccp1_object.CCP1_InterruptHandler	PTR FTN()void  size(2) Largest target is 0

    CCP_DeInit@_ccp1_object.CCP2_InterruptHandler	PTR FTN()void  size(2) Largest target is 0

    CCP_DeInit@_ccp1_object.CCP1_InterruptHandler	PTR FTN()void  size(2) Largest target is 0

    CCP2_InterruptHandler	PTR FTN()void  size(2) Largest target is 1
		 -> Absolute function(), 

    CCP1_InterruptHandler	PTR FTN()void  size(2) Largest target is 1
		 -> Absolute function(), 

    S1167$CCP2_InterruptHandler	PTR FTN()void  size(2) Largest target is 0

    CCP_Init@_ccp1_object.CCP2_InterruptHandler	PTR FTN()void  size(2) Largest target is 0

    S1167$CCP1_InterruptHandler	PTR FTN()void  size(2) Largest target is 0

    CCP_Init@_ccp1_object.CCP1_InterruptHandler	PTR FTN()void  size(2) Largest target is 0

    adc_select_vol_ref@_adc.ADC_InterruptHandler	PTR FTN()void  size(2) Largest target is 0

    adc_select_result_format@_adc.ADC_InterruptHandler	PTR FTN()void  size(2) Largest target is 0

    ADC_GetConversion_Status_Result@_adc.ADC_InterruptHandler	PTR FTN()void  size(2) Largest target is 0

    ADC_InterruptHandler	PTR FTN()void  size(2) Largest target is 1
		 -> Absolute function(), 

    S748$ADC_InterruptHandler	PTR FTN()void  size(2) Largest target is 0

    ADC_Init@_adc.ADC_InterruptHandler	PTR FTN()void  size(2) Largest target is 0

    led_toggle_logic@led	PTR const struct . size(2) Largest target is 1
		 -> led2(COMRAM[1]), led1(COMRAM[1]), 

    led_turn_on@led	PTR const struct . size(2) Largest target is 1
		 -> led2(COMRAM[1]), led1(COMRAM[1]), 

    led_initialize@led	PTR const struct . size(2) Largest target is 1
		 -> led2(COMRAM[1]), led1(COMRAM[1]), 

    sp__memset	PTR void  size(2) Largest target is 0


Critical Paths under _main in COMRAM

    _led_initialize->_gpio_pin_write_logic
    _EUSART_BUADRATE_Calculation->___fladd
    ___fldiv->___xxtofl
    ___fladd->___fldiv

Critical Paths under _InterruptManager in COMRAM

    _EUSART_IN->_led_toggle_logic
    _EUSART_RX_ISR->_EUSART_OUT
    _EUSART_OUT->_led_turn_on
    _led_turn_on->i2_gpio_pin_write_logic
    _led_toggle_logic->_gpio_pin_toggle_logic

Critical Paths under _main in BANK0

    _Application_initialize->_EUSART_ASYNC_Init
    _EUSART_ASYNC_Init->_EUSART_BUADRATE_Calculation
    _EUSART_BUADRATE_Calculation->___fladd

Critical Paths under _InterruptManager in BANK0

    None.

Critical Paths under _main in BANK1

    None.

Critical Paths under _InterruptManager in BANK1

    None.

Critical Paths under _main in BANK2

    None.

Critical Paths under _InterruptManager in BANK2

    None.

Critical Paths under _main in BANK3

    None.

Critical Paths under _InterruptManager in BANK3

    None.

Critical Paths under _main in BANK4

    None.

Critical Paths under _InterruptManager in BANK4

    None.

Critical Paths under _main in BANK5

    None.

Critical Paths under _InterruptManager in BANK5

    None.

Critical Paths under _main in BANK6

    None.

Critical Paths under _InterruptManager in BANK6

    None.

Critical Paths under _main in BANK7

    None.

Critical Paths under _InterruptManager in BANK7

    None.

Critical Paths under _main in BANK8

    None.

Critical Paths under _InterruptManager in BANK8

    None.

Critical Paths under _main in BANK9

    None.

Critical Paths under _InterruptManager in BANK9

    None.

Critical Paths under _main in BANK10

    None.

Critical Paths under _InterruptManager in BANK10

    None.

Critical Paths under _main in BANK11

    None.

Critical Paths under _InterruptManager in BANK11

    None.

Critical Paths under _main in BANK12

    None.

Critical Paths under _InterruptManager in BANK12

    None.

Critical Paths under _main in BANK13

    None.

Critical Paths under _InterruptManager in BANK13

    None.

Critical Paths under _main in BANK14

    None.

Critical Paths under _InterruptManager in BANK14

    None.

Critical Paths under _main in BANK15

    None.

Critical Paths under _InterruptManager in BANK15

    None.

Call Graph Tables:

 ---------------------------------------------------------------------------------
 (Depth) Function   	        Calls       Base Space   Used Autos Params    Refs
 ---------------------------------------------------------------------------------
 (0) _main                                                 0     0      0   21079
             _Application_initialize
 ---------------------------------------------------------------------------------
 (1) _Application_initialize                               0     0      0   21079
                  _EUSART_ASYNC_Init
                     _led_initialize
 ---------------------------------------------------------------------------------
 (2) _led_initialize                                       5     3      2   11328
                                             31 COMRAM     4     2      2
            _gpio_pin_direction_init
               _gpio_pin_write_logic
 ---------------------------------------------------------------------------------
 (3) _gpio_pin_write_logic                                10     7      3    9269
                                             21 COMRAM    10     7      3
 ---------------------------------------------------------------------------------
 (3) _gpio_pin_direction_init                              9     7      2    1721
                                             21 COMRAM     9     7      2
 ---------------------------------------------------------------------------------
 (2) _EUSART_ASYNC_Init                                    3     1      2    9751
                                             20 BANK0      2     0      2
        _EUSART_BUADRATE_Calculation
               _eusart_async_rx_init
               _eusart_async_tx_init
 ---------------------------------------------------------------------------------
 (3) _eusart_async_tx_init                                 2     0      2     164
                                             21 COMRAM     2     0      2
 ---------------------------------------------------------------------------------
 (3) _eusart_async_rx_init                                 2     0      2     208
                                             21 COMRAM     2     0      2
 ---------------------------------------------------------------------------------
 (3) _EUSART_BUADRATE_Calculation                         12    10      2    9152
                                              8 BANK0     12    10      2
                            ___fladd
                            ___fldiv
                            ___fltol
                           ___xxtofl
 ---------------------------------------------------------------------------------
 (4) ___xxtofl                                            14    10      4     836
                                             21 COMRAM    14    10      4
 ---------------------------------------------------------------------------------
 (4) ___fltol                                             10     6      4     517
                                             21 COMRAM    10     6      4
 ---------------------------------------------------------------------------------
 (4) ___fldiv                                             25    17      8    3263
                                             35 COMRAM    25    17      8
                           ___xxtofl (ARG)
 ---------------------------------------------------------------------------------
 (4) ___fladd                                             16     8      8    3942
                                             60 COMRAM     8     0      8
                                              0 BANK0      8     8      0
                            ___fldiv (ARG)
                           ___xxtofl (ARG)
 ---------------------------------------------------------------------------------
 Estimated maximum stack depth 4
 ---------------------------------------------------------------------------------
 (Depth) Function   	        Calls       Base Space   Used Autos Params    Refs
 ---------------------------------------------------------------------------------
 (5) _InterruptManager                                     6     6      0    1691
                                             15 COMRAM     6     6      0
                            _ADC_ISR
                           _CCP1_ISR
                           _CCP2_ISR
                      _EUSART_RX_ISR
                      _EUSART_TX_ISR
                           _INT0_ISR
                           _INT1_ISR
                           _INT2_ISR
                            _RB4_ISR
                            _RB5_ISR
                            _RB6_ISR
                            _RB7_ISR
                         _TIMER0_ISR
                         _TIMER1_ISR
                         _TIMER2_ISR
                         _TIMER3_ISR
 ---------------------------------------------------------------------------------
 (6) _TIMER3_ISR                                           0     0      0       0
 ---------------------------------------------------------------------------------
 (6) _TIMER2_ISR                                           0     0      0       0
 ---------------------------------------------------------------------------------
 (6) _TIMER1_ISR                                           0     0      0       0
 ---------------------------------------------------------------------------------
 (6) _TIMER0_ISR                                           0     0      0       0
 ---------------------------------------------------------------------------------
 (6) _RB7_ISR                                              0     0      0       0
 ---------------------------------------------------------------------------------
 (6) _RB6_ISR                                              0     0      0       0
 ---------------------------------------------------------------------------------
 (6) _RB5_ISR                                              0     0      0       0
 ---------------------------------------------------------------------------------
 (6) _RB4_ISR                                              0     0      0       0
 ---------------------------------------------------------------------------------
 (6) _INT2_ISR                                             0     0      0       0
 ---------------------------------------------------------------------------------
 (6) _INT1_ISR                                             0     0      0       0
 ---------------------------------------------------------------------------------
 (6) _INT0_ISR                                             0     0      0       0
 ---------------------------------------------------------------------------------
 (6) _EUSART_TX_ISR                                        0     0      0     473
                   Absolute function *
                          _EUSART_IN *
 ---------------------------------------------------------------------------------
 (7) _EUSART_IN                                            0     0      0     473
                   _led_toggle_logic
 ---------------------------------------------------------------------------------
 (6) _EUSART_RX_ISR                                        0     0      0    1218
                   Absolute function *
                         _EUSART_OUT *
 ---------------------------------------------------------------------------------
 (7) _EUSART_OUT                                           2     2      0    1218
                                             13 COMRAM     2     2      0
  _EUSART_ASYNC_ReadByte_NonBlocking
                   _led_toggle_logic
                        _led_turn_on
 ---------------------------------------------------------------------------------
 (8) _led_turn_on                                          5     3      2     524
                                              9 COMRAM     4     2      2
             i2_gpio_pin_write_logic
 ---------------------------------------------------------------------------------
 (9) i2_gpio_pin_write_logic                              10     7      3     237
                                              0 COMRAM     9     6      3
 ---------------------------------------------------------------------------------
 (8) _led_toggle_logic                                     5     3      2     473
                                              7 COMRAM     4     2      2
              _gpio_pin_toggle_logic
 ---------------------------------------------------------------------------------
 (9) _gpio_pin_toggle_logic                                8     6      2     194
                                              0 COMRAM     7     5      2
 ---------------------------------------------------------------------------------
 (8) _EUSART_ASYNC_ReadByte_NonBlocking                    5     1      4     221
                                              0 COMRAM     5     1      4
 ---------------------------------------------------------------------------------
 (7) Absolute function(Fake)                               0     0      0       0
 ---------------------------------------------------------------------------------
 (6) _CCP2_ISR                                             0     0      0       0
 ---------------------------------------------------------------------------------
 (6) _CCP1_ISR                                             0     0      0       0
 ---------------------------------------------------------------------------------
 (6) _ADC_ISR                                              0     0      0       0
 ---------------------------------------------------------------------------------
 Estimated maximum stack depth 9
 ---------------------------------------------------------------------------------

 Call Graph Graphs:

 _main (ROOT)
   _Application_initialize
     _EUSART_ASYNC_Init
       _EUSART_BUADRATE_Calculation
         ___fladd
           ___fldiv (ARG)
             ___xxtofl (ARG)
           ___xxtofl (ARG)
         ___fldiv
         ___fltol
         ___xxtofl
       _eusart_async_rx_init
       _eusart_async_tx_init
     _led_initialize
       _gpio_pin_direction_init
       _gpio_pin_write_logic

 _InterruptManager (ROOT)
   _ADC_ISR
   _CCP1_ISR
   _CCP2_ISR
   _EUSART_RX_ISR
     Absolute function(Fake) *
     _EUSART_OUT *
       _EUSART_ASYNC_ReadByte_NonBlocking
       _led_toggle_logic
         _gpio_pin_toggle_logic
       _led_turn_on
         i2_gpio_pin_write_logic
   _EUSART_TX_ISR
     Absolute function(Fake) *
     _EUSART_IN *
       _led_toggle_logic
   _INT0_ISR
   _INT1_ISR
   _INT2_ISR
   _RB4_ISR
   _RB5_ISR
   _RB6_ISR
   _RB7_ISR
   _TIMER0_ISR
   _TIMER1_ISR
   _TIMER2_ISR
   _TIMER3_ISR

 Address spaces:
Name               Size   Autos  Total    Cost      Usage
BIGRAM             F7F      0       0      49        0.0%
EEDATA             400      0       0       0        0.0%
BITBANK14          100      0       0      33        0.0%
BANK14             100      0       0      34        0.0%
BITBANK13          100      0       0      31        0.0%
BANK13             100      0       0      32        0.0%
BITBANK12          100      0       0      29        0.0%
BANK12             100      0       0      30        0.0%
BITBANK11          100      0       0      27        0.0%
BANK11             100      0       0      28        0.0%
BITBANK10          100      0       0      25        0.0%
BANK10             100      0       0      26        0.0%
BITBANK9           100      0       0      23        0.0%
BANK9              100      0       0      24        0.0%
BITBANK8           100      0       0      21        0.0%
BANK8              100      0       0      22        0.0%
BITBANK7           100      0       0      19        0.0%
BANK7              100      0       0      20        0.0%
BITBANK6           100      0       0      17        0.0%
BANK6              100      0       0      18        0.0%
BITBANK5           100      0       0      15        0.0%
BANK5              100      0       0      16        0.0%
BITBANK4           100      0       0      13        0.0%
BANK4              100      0       0      14        0.0%
BITBANK3           100      0       0      10        0.0%
BANK3              100      0       0      11        0.0%
BITBANK2           100      0       0       8        0.0%
BANK2              100      0       0       9        0.0%
BITBANK1           100      0       0       6        0.0%
BANK1              100      0       0       7        0.0%
BITBANK15           80      0       0      35        0.0%
BANK15              80      0       0      36        0.0%
BITBANK0            80      0       0       4        0.0%
BANK0               80     16      64       5       78.1%
BITCOMRAM           7E      0       0       0        0.0%
COMRAM              7E     44      68       1       82.5%
BITBIGSFRhlhlhh     18      0       0      38        0.0%
BITBIGSFRhh          D      0       0      37        0.0%
BITBIGSFRlllhh       6      0       0      46        0.0%
BITBIGSFRhlhllh      5      0       0      39        0.0%
BITBIGSFRhlhlll      5      0       0      41        0.0%
BITBIGSFRllhllh      4      0       0      43        0.0%
BITBIGSFRllllh       4      0       0      47        0.0%
BITBIGSFRllhllh      4      0       0      44        0.0%
BITBIGSFRlllll       4      0       0      48        0.0%
BITBIGSFRhlhlll      1      0       0      40        0.0%
BITBIGSFRllhllh      1      0       0      42        0.0%
BITBIGSFRllhlll      1      0       0      45        0.0%
BIGSFR               0      0       0     200        0.0%
BITSFR               0      0       0     200        0.0%
SFR                  0      0       0     200        0.0%
STACK                0      0       0       2        0.0%
NULL                 0      0       0       0        0.0%
ABS                  0      0      CC      12        0.0%
DATA                 0      0      CC       3        0.0%
CODE                 0      0       0       0        0.0%


Microchip Technology PIC18 Macro Assembler V2.40 build 20220703182018 
Symbol Table                                                                                   Sat Feb 25 15:56:48 2023

                       ??_InterruptManager 0010                               ___fldiv@aexp 003C  
                             ___fldiv@bexp 003B                               ___fldiv@sign 0034  
                              ?_EUSART_OUT 0001                                        l283 27DA  
                                      l700 12FC                                        l701 13AE  
                                      l702 1460                                        l703 14FE  
                                      l287 2850                                        l712 28CC  
                                      l721 27C2                                        l802 2428  
                                      l707 28A8                                        l716 279E  
                                      l709 28CA                                        l653 2A94  
                                      l718 27C0                                        l655 2AC0  
                                      l695 102C                                        l783 22DE  
                                      l697 10E0                                        l698 1194  
                                      l699 1248                            __end_of_ADC_ISR 2C24  
                                      _ret 0066                        led_initialize@F3043 005C  
                                      prod 000FF3                                        tosl 000FFD  
                    relay_initialize@F3037 0058                                        wreg 000FE8  
                             ?_led_turn_on 000A                            __end_of_RB4_ISR 2C0C  
                          __end_of_RB5_ISR 2C08                            __end_of_RB6_ISR 2C04  
                          __end_of_RB7_ISR 2C00                               ___fltol@exp1 001F  
                                     l2020 2114                                       l2013 20B8  
                                     l2006 2020                                       l2009 217C  
                                     l1342 2BC8                                       l1343 2BC8  
                                     l1348 2BB4                                       l1648 266E  
                                     l1905 18DA                                       l1906 18C8  
                                     l5051 21B2                                       l1933 1D5A  
                                     l5061 229A                                       l5053 21D4  
                                     l5045 217E                                       l1935 1BBA  
                                     l5055 21DC                                       l5063 22DC  
                                     l5047 2182                                       l5071 22E0  
                                     l1880 16DE                                       l1944 1C00  
                                     l1881 16A4                                       l7001 1016  
                                     l5057 223E                                       l5049 2194  
                                     l5081 233E                                       l5073 22E4  
                                     l1946 1C78                                       l1938 1B7E  
                                     l1947 1C66                                       l7011 119A  
                                     l7003 1032                                       l5171 289C  
                                     l5083 23A0                                       l5075 22F6  
                                     l7021 1352                                       l7013 11EC  
                                     l7005 1084                                       l5181 273C  
                                     l5173 28AA                                       l5165 2852  
                                     l5077 2314                                       l5261 2814  
                                     l5253 27C4                                       l1879 16F0  
                                     l7023 13B2                                       l7015 124E  
                                     l7007 10E6                                       l7031 14C0  
                                     l5183 2792                                       l5175 28C4  
                                     l5167 286C                                       l5087 23FC  
                                     l5079 2336                                       l5263 2816  
                                     l5255 27C4                                       l1896 180A  
                                     l1888 19C0                                       l7025 1404  
                                     l7017 12A0                                       l7009 1138  
                                     l5185 27A0                                       l5177 2720  
                                     l5169 286E                                       l7041 2A7C  
                                     l5089 2426                                       l5265 2828  
                                     l5257 27D6                                       l7019 1300  
                                     l5187 27BA                                       l5179 273A  
                                     l7043 2A90                                       l5267 2834  
                                     l5259 27DE                                       l7051 2B8E  
                                     l7029 146A                                       l7045 2A9A  
                                     l7053 2B9C                                       l7047 2ABE  
                                     l7039 2A7C                                       l7055 2BA8  
                                     l6601 1598                                       l7057 2BC4  
                                     l6603 15A8                                       l6611 15D2  
                                     l7171 22C6                                       l6701 17DA  
                                     l6621 160A                                       l6613 15E2  
                                     l6605 15B8                                       l7173 148A  
                                     l6703 17EA                                       l6631 161E  
                                     l6623 160E                                       l6615 15F4  
                                     l6607 15C8                                       l6721 186C  
                                     l6713 1844                                       l6705 17FA  
                                     l6641 1632                                       l6633 1622  
                                     l6625 1612                                       l6617 1602  
                                     l6609 15CA                                       l6801 1A54  
                                     l7169 2410                                       l6723 1874  
                                     l6715 184E                                       l6707 1820  
                                     l6731 1898                                       l6651 1646  
                                     l6643 1636                                       l6635 1626  
                                     l6627 1616                                       l6619 1606  
                                     l6571 1500                                       l6811 1A8E  
                                     l6803 1A64                                       l6741 18EA  
                                     l6733 189C                                       l6725 1878  
                                     l6717 185C                                       l6709 1830  
                                     l6661 16BE                                       l6653 1670  
                                     l6645 163A                                       l6637 162A  
                                     l6629 161A                                       l6581 153E  
                                     l6573 150E                                       l6901 1D4E  
                                     l6813 1AA4                                       l6805 1A74  
                                     l6751 1950                                       l6743 18F6  
                                     l6735 18AA                                       l6727 1888  
                                     l6719 185E                                       l6671 16FE  
                                     l6663 16C2                                       l6655 168C  
                                     l6647 163E                                       l6639 162E  
                                     l6591 156E                                       l6583 154E  
                                     l6575 151C                                       l6903 1D50  
                                     l6831 1AF8                                       l6815 1AB4  
                                     l6823 1AD4                                       l6807 1A76  
                                     l6911 256A                                       l6761 1998  
                                     l6753 1960                                       l6745 1904  
                                     l6737 18C0                                       l6729 188A  
                                     l6681 1740                                       l6673 170E  
                                     l6665 16D0                                       l6657 169C  
                                     l6649 1642                                       l6593 1580  
                                     l6585 1550                                       l6577 151E  
                                     l6841 1B4A                                       l6833 1B12  
                                     l6825 1AE4                                       l6817 1ABC  
                                     l6809 1A7E                                       l6921 25C0  
                                     l6913 2580                                       l6763 199A  
                                     l6755 1980                                       l6747 193E  
                                     l6691 176E                                       l6683 174E  
                                     l6667 16D2                                       l6659 16B2  
                                     l6595 1582                                       l6579 152E  
                                     l6587 1558                                       l6851 1BA6  
                                     l6843 1B5A                                       l6835 1B22  
                                     l6827 1AE4                                       l6819 1AC0  
                                     l6923 25D0                                       l6765 19A0  
                                     l6757 1984                                       l6749 1940  
                                     l6693 1778                                       l6685 175A  
                                     l6677 1722                                       l6669 16DC  
                                     l6597 1588                                       l6589 1568  
                                     l6861 1BE6                                       l6853 1BA8  
                                     l6845 1B6E                                       l6837 1B32  
                                     l6781 19EE                                       l6773 19C2  
                                     l6933 25FA                                       l6925 25D4  
                                     l6917 2594                                       l6767 19AE  
                                     l6759 1992                                       l6687 175E  
                                     l6679 1732                                       l6695 177E  
                                     l6599 1596                                       l6871 1C22  
                                     l6863 1BF0                                       l6855 1BB8  
                                     l6847 1B7C                                       l6839 1B42  
                                     l6791 1A28                                       l6783 19FE  
                                     l6775 19CE                                       l6951 265E  
                                     l6943 2622                                       l6935 2604  
                                     l6927 25E2                                       l6919 25BE  
                                     l6769 19B0                                       l6697 17A4  
                                     l6689 176C                                       l6881 1C94  
                                     l6873 1C30                                       l6865 1BFE  
                                     l6857 1BCA                                       l6849 1B88  
                                     l6793 1A2E                                       l6785 1A0E  
                                     l6777 19DC                                       l6945 262E  
                                     l6937 260E                                       l6961 2030  
                                     l6699 17D8                                       l6891 1D00  
                                     l6883 1CA2                                       l6875 1C5E  
                                     l6859 1BE0                                       l6867 1C10  
                                     l6795 1A34                                       l6787 1A10  
                                     l6779 19DE                                       l6947 263E  
                                     l6971 206E                                       l6963 2046  
                                     l6955 1FCC                                       l6893 1D1A  
                                     l6885 1CCC                                       l6869 1C1E  
                                     l6797 1A42                                       l6789 1A18  
                                     l6949 264E                                       l6981 20F6  
                                     l6973 20A0                                       l6957 1FDC  
                                     l6895 1D36                                       l6879 1C88  
                                     l6887 1CD0                                       l6799 1A44  
                                     l6991 214C                                       l6983 2104  
                                     l6975 20A2                                       l6967 205A  
                                     l6959 1FEA                                       l6897 1D3A  
                                     l6889 1CEA                                       l6993 215C  
                                     l6985 2122                                       l6977 20AE  
                                     l6969 2062                                       l6899 1D48  
                                     l6995 216A                                       l6987 2124  
                                     l6979 20EA                                       l6997 216C  
                                     l6989 2128                                       STR_1 1011  
                                     _LATA 000F89                                       _LATB 000F8A  
                                     _LATC 000F8B                                       _LATD 000F8C  
                                     _LATE 000F8D                                       u4300 21D4  
                                     u4301 21D0                                       u4330 22B2  
                                     u4314 21FC                                       u4331 22AC  
                                     u4315 21F8                                       u6100 15B8  
                                     u4340 22B4                                       u4324 225E  
                                     u6101 15B4                                       u4325 225A  
                                     u6110 15F4                                       u4350 22F6  
                                     u6111 15F0                                       u4351 22F2  
                                     u6200 170E                                       u6120 1602  
                                     u6040 151C                                       u4440 286C  
                                     u4280 2194                                       u4360 2314  
                                     u6201 170A                                       u6121 15FE  
                                     u6041 1518                                       u4441 2868  
                                     u4281 2190                                       u4361 2310  
                                     u6210 1740                                       u6130 1670  
                                     u6050 152E                                       u4450 289C  
                                     u4290 21B2                                       u4370 2336  
                                     u6211 173C                                       u6131 166C  
                                     u6051 152A                                       u4451 2898  
                                     u4291 21AE                                       u4371 2332  
                                     u6300 1888                                       u6220 174E  
                                     u6140 1688                                       u6060 153E  
                                     u4460 28C4                                       u6301 1884  
                                     u6221 174A                                       u6141 1682  
                                     u6061 153A                                       u4461 28C0  
                                     u6310 1898                                       u6230 176C  
                                     u6150 168A                                       u6070 1580  
                                     u4470 273A                                       u6311 1894  
                                     u6231 1768                                       u6071 157C  
                                     u4471 2736                                       u6400 1980  
                                     u6320 18AA                                       u6240 17A4  
                                     u6160 16B2                                       u6080 1596  
                                     u4480 2792                                       u4384 235E  
                                     u4560 27D6                                       u6401 197C  
                                     u6321 18A6                                       u6241 17A0  
                                     u6161 16AE                                       u6081 1592  
                                     u4481 278E                                       u4385 235A  
                                     u4561 27D2                                       u6410 1992  
                                     u6330 18C0                                       u6250 17EA  
                                     u6170 16D0                                       u6090 15A8  
                                     u4490 27BA                                       u4394 23C0  
                                     u6411 198E                                       u6331 18BC  
                                     u6251 17E6                                       u6171 16CC  
                                     u6091 15A4                                       u4491 27B6  
                                     u4395 23BC                                       u6420 19AE  
                                     u6340 18D6                                       u6260 1820  
                                     u6180 16F0                                       u6500 1AE4  
                                     u6421 19AA                                       u6341 18D2  
                                     u6261 181C                                       u6181 16EC  
                                     u6501 1AE0                                       u6350 18EA  
                                     u6270 1830                                       u6190 16FE  
                                     u6510 1B5A                                       u6430 19DC  
                                     u6351 18E6                                       u6271 182C  
                                     u6191 16FA                                       u6511 1B56  
                                     u6431 19D8                                       u4575 2826  
                                     u6360 1904                                       u6280 185C  
                                     u6600 1C74                                       u6520 1B7C  
                                     u6440 19EE                                       u6361 1900  
                                     u6281 1858                                       u6601 1C70  
                                     u6521 1B78                                       u6441 19EA  
                                     u4577 2828                                       u6370 193E  
                                     u6290 186C                                       u6610 1C88  
                                     u6530 1BA6                                       u6450 19FE  
                                     u6371 193A                                       u6291 1868  
                                     u6611 1C84                                       u6531 1BA2  
                                     u6451 19FA                                       u6380 1950  
                                     u6620 1CA2                                       u6540 1BCA  
                                     u6460 1A42                                       u6700 261E  
                                     u6381 194C                                       u6621 1C9E  
                                     u6541 1BC6                                       u6461 1A3E  
                                     u6701 261A                                       u6390 1960  
                                     u6630 1CEA                                       u6550 1BE0  
                                     u6470 1A54                                       u6710 263E  
                                     u6391 195C                                       u6631 1CE6  
                                     u6551 1BDC                                       u6471 1A50  
                                     u6711 263A                                       u6640 1D1A  
                                     u6560 1BFE                                       u6480 1A64  
                                     u6720 264E                                       u6800 2122  
                                     u6641 1D16                                       u6561 1BFA  
                                     u6481 1A60                                       u6721 264A  
                                     u6801 211E                                       u6650 1D48  
                                     u6570 1C1E                                       u6490 1AA4  
                                     u6810 215C                                       u6730 1FDC  
                                     u6651 1D44                                       u6571 1C1A  
                                     u6491 1AA0                                       u6811 2158  
                                     u6731 1FD8                                       u6580 1C30  
                                     u6660 2580                                       u6820 216A  
                                     u6740 1FEA                                       u6581 1C2C  
                                     u6661 257C                                       u6821 2166  
                                     u6741 1FE6                                       u6590 1C5E  
                                     u6670 25B4                                       u6750 2046  
                                     u6830 2A90                                       u6591 1C5A  
                                     u6751 2042                                       u6831 2A8C  
                                     u6680 25E2                                       u6760 209C  
                                     u6681 25DE                                       u6761 2098  
                                     u6690 25F6                                       u6770 20E6  
                                     u6691 25F2                                       u6675 25AA  
                                     u6771 20E2                                       u6780 2104  
                                     u6781 2100                                       u6790 2114  
                                     u6791 2110                                       _TMR2 000FCC  
                                     _led1 0068                                       _led2 0067  
                                     _main 2BC4                           __end_of_CCP1_ISR 2C20  
                         __end_of_CCP2_ISR 2C1C                                       fsr2h 000FDA  
                                     indf2 000FDF                                       fsr1l 000FE1  
                                     fsr2l 000FD9                   ?_gpio_pin_direction_init 0016  
                                     btemp 0069                     __end_of_led_initialize 2852  
                                     prodh 000FF4                                       prodl 000FF3  
                                     start 000E                            ___fldiv@new_exp 0035  
                     _RB7_InterruptHandler 00BA                               ___param_bank 000000  
                   ?_gpio_pin_toggle_logic 0001                       _timer3_preload_value 0045  
                     _gpio_pin_write_logic 22E0                                ?_TIMER0_ISR 0001  
                              ?_TIMER1_ISR 0001                                ?_TIMER2_ISR 0001  
                              ?_TIMER3_ISR 0001                           __end_of_INT0_ISR 2C18  
                         __end_of_INT1_ISR 2C14                           __end_of_INT2_ISR 2C10  
                            _EUSART_RX_ISR 2B30                              ___fltol@sign1 001E  
                            _EUSART_TX_ISR 2B60                            __end_of___fladd 19C2  
                                    ?_main 0001                            __end_of___fldiv 1D5C  
                                    _EEADR 000FA9                            __end_of___fltol 2670  
                                    i2l304 295A                                      i2l308 29B4  
                                    i2l450 2C22                                      i2l290 28E4  
                                    i2l294 2942                                      i2l802 2568  
                                    i2l900 2C0A                                      i2l581 2C1A  
                                    i2l726 2B8C                                      i2l671 2AE0  
                                    i2l735 2B5E                                      i2l672 2AFA  
                                    i2l816 271E                                      i2l904 2C06  
                                    i2l912 2BFE                                      i2l577 2C1E  
                                    i2l675 2AFC                                      i2l908 2C02  
                                    i2l892 2C12                                      i2l888 2C16  
                                    i2l896 2C0E                                      _RCREG 000FAE  
                      relay_turn_off@F3047 0056                                      _TMR0H 000FD7  
                                    _TMR1H 000FCF                                      _TMR0L 000FD6  
                                    _TMR1L 000FCE                                      _TMR3H 000FB3  
                                    _TMR3L 000FB2                                      _SPBRG 000FAF  
                                    _PORTA 000F80                                      _PORTB 000F81  
                                    _PORTC 000F82                                      _PORTD 000F83  
                                    _PORTE 000F84                                      _TRISA 000F92  
                                    _TRISB 000F93                                      _TRISC 000F94  
                                    _TRISD 000F95                                      _TRISE 000F96  
                                    _TXREG 000FAD                                      pclath 000FFA  
                                    pclatu 000FFB                                      tablat 000FF5  
                                    ttemp5 006A                                      ttemp6 006D  
                                    ttemp7 0071                                      status 000FD8  
                                    wtemp8 006A                            ?_led_initialize 0020  
                          __initialization 2A1C                    led_toggle_logic@pin_obj 000B  
                             __end_of_main 2BD0                      ?_gpio_pin_write_logic 0016  
__end_of_EUSART_ASYNC_ReadByte_NonBlocking 2AFE        ??_EUSART_ASYNC_ReadByte_NonBlocking 0005  
       ?_EUSART_ASYNC_ReadByte_NonBlocking 0001          _EUSART_ASYNC_ReadByte_NonBlocking 2AC2  
              i2gpio_pin_write_logic@logic 0003                                  ??_ADC_ISR 0001  
                           ?_EUSART_RX_ISR 0001                             ?_EUSART_TX_ISR 0001  
                                   ??_main 0045                              __activetblptr 000003  
                         led_turn_on@F3048 005B                                  ??_RB4_ISR 0001  
                                ??_RB5_ISR 0001                                  ??_RB6_ISR 0001  
                                ??_RB7_ISR 0001                          __end_of_EUSART_IN 2BC4  
               _EUSART_OverrunErrorHandler 00C8                                     _ADRESH 000FC4  
                                   _EEADRH 000FAA                                     _ADRESL 000FC3  
                                   _EEDATA 000FA8                                     _CCPR1H 000FBF  
                                   _CCPR2H 000FBC                                     _CCPR1L 000FBE  
                                   _CCPR2L 000FBB                                     _EECON2 000FA7  
                        _EUSART_ASYNC_Init 2A7C                                     i2l1102 1FAE  
                                   i2l1207 2BE6                                     i2l1146 2BF2  
                                   i2l1252 2BFA                                     i2l1328 2BC2  
                                   i2l1337 2A1A                                     i2l1296 2BDA  
                                   i2l5101 28E0                                     i2l5031 247C  
                                   i2l5023 242A                                     i2l5103 28E8  
                                   i2l5121 2994                                     i2l5113 2944  
                                   i2l5033 2480                                     i2l5025 242A  
                                   i2l5105 291E                                     i2l5123 2996  
                                   i2l5115 2944                                     i2l5035 24E2  
                                   i2l5027 243C                                     i2l5107 2920  
                                   i2l5125 29A8                                     i2l5117 2956  
                                   i2l5029 245A                                     i2l5109 2932  
                                   i2l5119 295E                                     i2l5039 253E  
                                   i2l6301 1D76                                     i2l5191 2AC6  
                                   i2l5351 2B60                                     i2l6311 1DB2  
                                   i2l6303 1D84                                     i2l5193 2AD8  
                                   i2l5097 28CE                                     i2l5361 2B5E  
                                   i2l5353 2B62                                     i2l5433 2BE8  
                                   i2l5441 2BDC                                     i2l6401 1F9C  
                                   i2l6321 1DE4                                     i2l6313 1DB6  
                                   i2l6305 1D92                                     i2l2891 2C1C  
                                   i2l5195 2AEE                                     i2l5099 28CE  
                                   i2l5283 2BB6                                     i2l5355 2B74  
                                   i2l5435 2BEA                                     i2l5443 2BDE  
                                   i2l6403 1FAA                                     i2l6331 1E20  
                                   i2l6323 1DF2                                     i2l6315 1DC4  
                                   i2l6307 1D96                                     i2l5189 2AC2  
                                   i2l4581 2670                                     i2l5293 29F8  
                                   i2l5285 29B6                                     i2l5357 2B30  
                                   i2l5373 2C10                                     i2l5381 2C08  
                                   i2l5437 2BEE                                     i2l5445 2BE2  
                                   i2l5453 2BD0                                     i2l6341 1E5C  
                                   i2l6333 1E2E                                     i2l6325 1E00  
                                   i2l6317 1DD2                                     i2l6309 1DA4  
                                   i2l2887 2C20                                     i2l2895 2C18  
                                   i2l4583 2682                                     i2l5287 29C2  
                                   i2l5359 2B42                                     i2l5455 2BD2  
                                   i2l6351 1E8E                                     i2l6343 1E60  
                                   i2l6335 1E32                                     i2l6327 1E04  
                                   i2l6319 1DD6                                     i2l4585 26A0  
                                   i2l5289 29DC                                     i2l5369 2C14  
                                   i2l5377 2C0C                                     i2l5385 2C04  
                                   i2l5393 2BFC                                     i2l5449 2BF4  
                                   i2l5457 2BD6                                     i2l6361 1ECA  
                                   i2l6353 1E9C                                     i2l6345 1E6E  
                                   i2l6337 1E40                                     i2l6329 1E12  
                                   i2l4587 26C2                                     i2l4579 2670  
                                   i2l6371 1EFC                                     i2l6363 1ECE  
                                   i2l6355 1EAA                                     i2l6347 1E7C  
                                   i2l6339 1E4E                                     i2l4589 26C6  
                                   i2l5389 2C00                                     i2l6381 1F2E  
                                   i2l6373 1F0A                                     i2l6365 1EDC  
                                   i2l6357 1EAE                                     i2l6349 1E8A  
                                   i2l7175 2A0C                                     i2l6391 1F6A  
                                   i2l6383 1F3C                                     i2l6375 1F0E  
                                   i2l6367 1EEA                                     i2l6359 1EBC  
                                   i2l7177 2552                                     i2l6393 1F6E  
                                   i2l6385 1F4A                                     i2l6377 1F1C  
                                   i2l6369 1EEE                                     i2l6395 1F7C  
                                   i2l6387 1F4E                                     i2l6379 1F2A  
                                   i2l6397 1F8A                                     i2l6389 1F5C  
                                   i2l6399 1F8E                    _TIMER0_InterruptHandler 00B8  
                                   _SPBRGH 000FB0                         ?_EUSART_ASYNC_Init 00E2  
                         __end_of___xxtofl 217E                 _EUSART_RX_InterruptHandler 004B  
                            _tris_register 0094                        led_toggle_logic@led 0008  
                      ??_EUSART_ASYNC_Init 0045                                  ??___fladd 00CE  
                                ??___fldiv 002C                                  ??___fltol 001A  
                  ?_Application_initialize 0001                                     clear_0 2A60  
                                   clear_1 2A6C                      led_initialize@pin_obj 0023  
                                   isa$std 000001                                  ?_CCP1_ISR 0001  
                             __pdataCOMRAM 0066                                  ?_CCP2_ISR 0001  
                             __mediumconst 0000                                     tblptrh 000FF7  
                                   tblptrl 000FF6                                     tblptru 000FF8  
                __end_of_EUSART_ASYNC_Init 2AC2                               ___xxtofl@arg 0020  
                             ___xxtofl@exp 001F                               ___xxtofl@val 0016  
         _EUSART_BUADRATE_Calculation$4513 00DE                                 __accesstop 0080  
                  __end_of__initialization 2A72                                  ?_INT0_ISR 0001  
                                ?_INT1_ISR 0001                                  ?_INT2_ISR 0001  
                            ___rparam_used 000001                                 ___fltol@f1 0016  
                        led_initialize@led 0020                     ??_gpio_pin_write_logic 0019  
                           __pcstackCOMRAM 0001             __end_of_Application_initialize 2BB6  
                             __pidataBANK0 2AFE                            ??_EUSART_RX_ISR 0010  
                          ??_EUSART_TX_ISR 000C                               ??_EUSART_OUT 000E  
                               ??_CCP1_ISR 0001                                 ??_CCP2_ISR 0001  
                         _led_toggle_logic 2944                                 __pbssBANK0 00B2  
                    _INT0_InterruptHandler 00C6                                 ??_INT0_ISR 0001  
                               ??_INT1_ISR 0001                                 ??_INT2_ISR 0001  
     EUSART_ASYNC_ReadByte_NonBlocking@ret 0005                    ??_gpio_pin_toggle_logic 0003  
                       __end_of_EUSART_OUT 2A1C                          led_turn_off@F3053 005A  
                             ??_TIMER0_ISR 0001                               ??_TIMER1_ISR 0001  
                             ??_TIMER2_ISR 0001                               ??_TIMER3_ISR 0001  
       EUSART_BUADRATE_Calculation@_eusart 00D6                   Dc_motor_initialize@F3042 0064  
                 Dc_motor_initialize@F3044 0063                                    _ADC_ISR 2C20  
                  _TIMER1_InterruptHandler 00B6             CCP_CompareMode_set_Value@F3101 00CC  
                                  _RB4_ISR 2C08                                    _RB5_ISR 2C04  
                                  _RB6_ISR 2C00                                    _RB7_ISR 2BFC  
                                ?___xxtofl 0016                           ??_led_initialize 0022  
                               _btn_values 1001                         __end_of_TIMER0_ISR 2BF4  
                       __end_of_TIMER1_ISR 2BE8                         __end_of_TIMER2_ISR 2BFC  
                       __end_of_TIMER3_ISR 2BDC                       _ADC_InterruptHandler 0053  
                                  __Hparam 0000                eusart_async_tx_init@_eusart 0016  
                                  __Lparam 0000                                    ___fladd 1500  
                                  ___fldiv 19C2                                    ___fltol 256A  
                             __psmallconst 1000                                    __pcinit 2A1C  
                                  __ramtop 1000                                    __ptext0 2BC4  
                                  __ptext1 2B8E                                    __ptext2 27C4  
                                  __ptext3 22E0                                    __ptext4 217E  
                                  __ptext5 2A7C                                    __ptext6 2852  
                                  __ptext7 2720                                    __ptext8 1016  
                                  __ptext9 1FCA                                  _T0CONbits 000FD5  
                                _T1CONbits 000FCD                                  _T2CONbits 000FCA  
                               ??___xxtofl 001A                                  _T3CONbits 000FB1  
                 ??i2_gpio_pin_write_logic 0004                             __pintcode_body 1D5C  
                                _EUSART_IN 2BB6                       end_of_initialization 2A72  
                                  int_func 1D5C          gpio_pin_write_logic@_pin_config_t 0016  
      i2gpio_pin_write_logic@_pin_config_t 0001                                  _RCSTAbits 000FAB  
                                  postdec1 000FE5                                    postdec2 000FDD  
                                  postinc0 000FEE                                    postinc2 000FDE  
                    _INT1_InterruptHandler 00C4                                  _PORTBbits 000F81  
                         _InterruptManager 0008                                ___fladd@grs 00D5  
 EUSART_ASYNC_ReadByte_NonBlocking@_eusart 0001                              ___xxtofl@sign 001E  
                            fp__EUSART_OUT 0000                                  _TRISCbits 000F94  
                              ___fldiv@grs 0037                                ___fldiv@rem 0030  
                               ?_EUSART_IN 0001               __end_of_eusart_async_rx_init 27C4  
             __end_of_eusart_async_tx_init 28CE               ?_EUSART_BUADRATE_Calculation 00D6  
                  _TIMER2_InterruptHandler 00B4                                _CCP1CONbits 000FBD  
                              _CCP2CONbits 000FBA                                  _TXSTAbits 000FAC  
                     _timer1_preload_value 0047                         relay_turn_on@F3042 0057  
       gpio_pin_toggle_logic@_pin_config_t 0001                   EUSART_ASYNC_Init@_eusart 00E2  
                 __end_of_led_toggle_logic 29B6                    _gpio_pin_direction_init 217E  
                              _BAUDCONbits 000FB8                              __pidataCOMRAM 2C24  
                           _timer0_preload 0049                        start_initialization 2A1C  
                            ??_led_turn_on 000C                       _RB4_InterruptHandler 00C0  
                             _lat_register 008A              ??_EUSART_BUADRATE_Calculation 00D8  
            __end_of_gpio_pin_toggle_logic 2720                 _EUSART_FramingErrorHandler 00CA  
EUSART_BUADRATE_Calculation@baud_rate_Temp 00DA                                __pdataBANK0 0080  
                                 ?_ADC_ISR 0001                      __end_of_EUSART_RX_ISR 2B60  
                    __end_of_EUSART_TX_ISR 2B8E                                  ___fladd@a 0041  
                                ___fladd@b 003D                                  ___fldiv@a 0028  
                                ___fldiv@b 0024                                   ?_RB4_ISR 0001  
                                 ?_RB5_ISR 0001                                   ?_RB6_ISR 0001  
                                 ?_RB7_ISR 0001                                __pbssCOMRAM 0045  
                            __pcstackBANK0 00CE                                ??_EUSART_IN 000C  
                      __end_of_led_turn_on 2944                      _INT2_InterruptHandler 00C2  
                ??_gpio_pin_direction_init 0018                                  __pintcode 0008  
                                 ?___fladd 003D                     i2_gpio_pin_write_logic 242A  
                                 ?___fldiv 0024                                   ?___fltol 0016  
                     _eusart_async_rx_init 2720                  gpio_pin_write_logic@logic 0018  
                     _eusart_async_tx_init 2852                    _TIMER3_InterruptHandler 00B2  
                              __smallconst 1000                                   _CCP1_ISR 2C1C  
                                 _CCP2_ISR 2C18                                   _INT0_ISR 2C14  
                                 _INT1_ISR 2C10                                   _INT2_ISR 2C0C  
                 ??_Application_initialize 0045                   __end_of_InterruptManager 1FCA  
                                 _PIE1bits 000F9D                                   _PIE2bits 000FA0  
                                 i2u340_40 2682                                   i2u340_41 267E  
                                 i2u341_40 26A0                                   i2u341_41 269C  
                                 i2u342_40 26C2                                   i2u342_41 26BE  
                                 i2u423_40 243C                                   i2u423_41 2438  
                                 i2u343_44 26E6                                   i2u343_45 26E2  
                                 i2u424_40 245A                                   i2u440_40 28E0  
                                 i2u424_41 2456                                   i2u440_41 28DC  
                                 i2u425_40 247C                                   i2u425_41 2478  
                                 _PIR1bits 000F9E                                   i2u441_45 2930  
                                 i2u441_47 2932                                   i2u450_40 2AD8  
                                 i2u442_40 2956                                   i2u450_41 2AD4  
                                 i2u442_41 2952                                   i2u426_44 24A0  
                                 i2u426_45 249C                                   i2u451_40 2AEE  
                                 i2u451_41 2AEA                                   _PIR2bits 000FA1  
                                 i2u427_44 2502                                   i2u443_45 29A6  
                                 i2u427_45 24FE                                   i2u443_47 29A8  
                     _RB5_InterruptHandler 00BE                         led_turn_on@pin_obj 000D  
                                 i2u463_40 2B74                                   i2u463_41 2B70  
                                 i2u560_40 1DC4                                   i2u560_41 1DC0  
                                 i2u465_40 2B42                                   i2u464_48 2B7A  
                                 i2u561_40 1DD2                                   i2u465_41 2B3E  
                                 i2u464_49 2B8C                                   i2u561_41 1DCE  
                                 i2u570_40 1E5C                                   i2u562_40 1DE4  
                                 i2u570_41 1E58                                   i2u562_41 1DE0  
                                 i2u466_48 2B48                                   i2u571_40 1E6E  
                                 i2u563_40 1DF2                                   i2u466_49 2B5A  
                                 i2u571_41 1E6A                                   i2u563_41 1DEE  
                                 i2u580_40 1EFC                                   i2u572_40 1E7C  
                                 i2u564_40 1E00                                   i2u556_40 1D84  
                                 i2u580_41 1EF8                                   i2u572_41 1E78  
                                 i2u564_41 1DFC                                   i2u556_41 1D80  
                                 i2u581_40 1F0A                                   i2u573_40 1E8A  
                                 i2u565_40 1E12                                   i2u557_40 1D92  
                                 i2u581_41 1F06                                   i2u573_41 1E86  
                                 i2u565_41 1E0E                                   i2u557_41 1D8E  
                                 i2u590_40 1F9C                                   i2u582_40 1F1C  
                                 i2u574_40 1E9C                                   i2u566_40 1E20  
                                 i2u558_40 1DA4                                   i2u590_41 1F98  
                                 i2u582_41 1F18                                   i2u574_41 1E98  
                                 i2u566_41 1E1C                                   i2u558_41 1DA0  
                                 i2u591_40 1FAA                                   i2u583_40 1F2A  
                                 i2u575_40 1EAA                                   i2u567_40 1E2E  
                                 i2u559_40 1DB2                                   i2u591_41 1FA6  
                                 i2u583_41 1F26                                   i2u575_41 1EA6  
                                 i2u567_41 1E2A                                   i2u559_41 1DAE  
                                 i2u584_40 1F3C                                   i2u576_40 1EBC  
                                 i2u568_40 1E40                                   i2u584_41 1F38  
                                 i2u576_41 1EB8                                   i2u568_41 1E3C  
                                 i2u585_40 1F4A                                   i2u577_40 1ECA  
                                 i2u569_40 1E4E                                   i2u585_41 1F46  
                                 i2u577_41 1EC6                                   i2u569_41 1E4A  
                                 i2u586_40 1F5C                                   i2u578_40 1EDC  
                                 i2u586_41 1F58                                   i2u578_41 1ED8  
                                 i2u587_40 1F6A                                   i2u579_40 1EEA  
                                 i2u587_41 1F66                                   i2u579_41 1EE6  
                                 i2u588_40 1F7C                                   i2u588_41 1F78  
                                 i2u589_40 1F8A                                   i2u589_41 1F86  
                    ?_eusart_async_rx_init 0016                      ?_eusart_async_tx_init 0016  
                             fp__EUSART_IN 0000                                 _ADCON0bits 000FC2  
                               _ADCON1bits 000FC1                                 _ADCON2bits 000FC0  
                    led_toggle_logic@F3058 0059                                  _usart_obj 009E  
          __end_of_gpio_pin_direction_init 22E0                                _led_turn_on 28CE  
                  gpio_pin_write_logic@ret 001F                                _INTCON2bits 000FF1  
                              _INTCON3bits 000FF0                                  copy_data0 2A30  
                       Dc_motor_stop@F3065 005E                         Dc_motor_stop@F3067 005D  
                               _EECON1bits 000FA6                             led_turn_on@led 000A  
                                 __Hrparam 0000                       _timer2_preload_value 0055  
                                 __Lrparam 0000                          ?_led_toggle_logic 0008  
                    _CCP1_InterruptHandler 0051                         ??_led_toggle_logic 000A  
                       __end_of_btn_values 1011                                   ___xxtofl 1FCA  
                                 __ptext10 256A                                   __ptext11 19C2  
                                 __ptext20 2C04                                   __ptext12 1500  
                                 __ptext21 2C08                                   __ptext30 242A  
                                 __ptext22 2C0C                                   __ptext14 2BD0  
                                 __ptext31 2944                                   __ptext23 2C10  
                                 __ptext15 2BF4                                   __ptext32 2670  
                                 __ptext24 2C14                                   __ptext16 2BDC  
                                 __ptext33 2AC2                                   __ptext25 2B60  
                                 __ptext17 2BE8                                   __ptext34 2C18  
                                 __ptext26 2BB6                                   __ptext18 2BFC  
                                 __ptext35 2C1C                                   __ptext27 2B30  
                                 __ptext19 2C00                                   __ptext36 2C20  
                                 __ptext28 29B6                                   __ptext37 0000  
                                 __ptext29 28CE                eusart_async_rx_init@_eusart 0016  
               _EUSART_TX_InterruptHandler 004D                    Dc_motor_turn_left@F3051 0062  
                  Dc_motor_turn_left@F3053 0061                                   isa$xinst 000000  
   EUSART_ASYNC_ReadByte_NonBlocking@_data 0003                     ??_eusart_async_rx_init 0018  
                                 int$flags 0069                     ??_eusart_async_tx_init 0018  
                               _EUSART_OUT 29B6       gpio_pin_direction_init@_pin_config_t 0016  
                               _INTCONbits 000FF2                       _RB6_InterruptHandler 00BC  
             __end_of_gpio_pin_write_logic 242A                   Dc_motor_turn_right@F3060 005F  
                 Dc_motor_turn_right@F3058 0060                                   intlevel2 0000  
                  ?i2_gpio_pin_write_logic 0001                      _gpio_pin_toggle_logic 2670  
                               _TIMER0_ISR 2BE8                                 _TIMER1_ISR 2BDC  
                               _TIMER2_ISR 2BF4                                 _TIMER3_ISR 2BD0  
                   _Application_initialize 2B8E                                _value_usart 0065  
               gpio_pin_direction_init@ret 001E                              ___fladd@signs 00D2  
                    _CCP2_InterruptHandler 004F                              _port_register 0080  
      __end_of_EUSART_BUADRATE_Calculation 1500                _EUSART_BUADRATE_Calculation 1016  
                             ___fladd@aexp 00D3                               ___fladd@bexp 00D4  
           __end_ofi2_gpio_pin_write_logic 256A                          ?_InterruptManager 0001  
                           _led_initialize 27C4  
